$0100 f3         di
$0101 af         xra a
$0102 32 2f 01   sta $012f
$0105 d3 10      out $10
$0107 3e c3      mvi a,$c3
$0109 32 00 00   sta $0000
$010c 32 38 00   sta $0038
$010f 21 00 01   lxi h,$0100
$0112 22 01 00   shld $0001
$0115 21 5c 03   lxi h,$035c
$0118 22 39 00   shld $0039
$011b 31 00 01   lxi sp,$0100
$011e cd db 03   call $03db
$0121 31 fe 7f   lxi sp,$7ffe
$0124 fb         ei
$0125 c3 6b 24   jmp $246b

$0128 00 ff 00 ff 00 ff 00 00   .ÿ.ÿ.ÿ..
$0130 00 00 00 32 00 00 00 00   ...2....

$0138 21 01 00   lxi h,$0001
$013b 7c         mov a,h
$013c 1f         rar
$013d 7d         mov a,l
$013e 1f         rar
$013f ac         xra h
$0140 67         mov h,a
$0141 7d         mov a,l
$0142 1f         rar
$0143 7c         mov a,h
$0144 1f         rar
$0145 ad         xra l
$0146 6f         mov l,a
$0147 ac         xra h
$0148 67         mov h,a
$0149 22 39 01   shld $0139
$014c c9         ret
$014d 32 65 01   sta $0165
$0150 32 88 01   sta $0188
$0153 21 ff ff   lxi h,$ffff
$0156 e5         push h
$0157 23         inx h
$0158 3e 80      mvi a,$80
$015a cd bd 01   call $01bd
$015d 32 77 01   sta $0177
$0160 1a         ldax d
$0161 32 69 01   sta $0169
$0164 3e 00      mvi a,$00
$0166 d3 10      out $10
$0168 3e 00      mvi a,$00
$016a 02         stax b
$016b af         xra a
$016c d3 10      out $10
$016e 13         inx d
$016f 03         inx b
$0170 2b         dcx h
$0171 7c         mov a,h
$0172 b5         ora l
$0173 c2 60 01   jnz $0160
$0176 3e 00      mvi a,$00
$0178 87         add a
$0179 da a2 01   jc $01a2
$017c cd bd 01   call $01bd
$017f eb         xchg
$0180 e3         xthl
$0181 e5         push h
$0182 09         dad b
$0183 eb         xchg
$0184 32 99 01   sta $0199
$0187 3e 00      mvi a,$00
$0189 d3 10      out $10
$018b 1a         ldax d
$018c 02         stax b
$018d 13         inx d
$018e 03         inx b
$018f 2b         dcx h
$0190 7c         mov a,h
$0191 b5         ora l
$0192 c2 8b 01   jnz $018b
$0195 af         xra a
$0196 d3 10      out $10
$0198 3e 00      mvi a,$00
$019a 87         add a
$019b eb         xchg
$019c e1         pop h
$019d e3         xthl
$019e eb         xchg
$019f d2 5a 01   jnc $015a
$01a2 cd bd 01   call $01bd
$01a5 67         mov h,a
$01a6 f1         pop psw
$01a7 af         xra a
$01a8 95         sub l
$01a9 c8         rz
$01aa e5         push h
$01ab 1f         rar
$01ac 67         mov h,a
$01ad 1a         ldax d
$01ae 1f         rar
$01af 6f         mov l,a
$01b0 13         inx d
$01b1 e3         xthl
$01b2 7c         mov a,h
$01b3 21 01 00   lxi h,$0001
$01b6 d4 c6 01   cnc $01c6
$01b9 23         inx h
$01ba c3 7f 01   jmp $017f
$01bd 2c         inr l
$01be 87         add a
$01bf c2 c5 01   jnz $01c5
$01c2 1a         ldax d
$01c3 13         inx d
$01c4 17         ral
$01c5 d8         rc
$01c6 29         dad h
$01c7 87         add a
$01c8 d2 be 01   jnc $01be
$01cb c3 bd 01   jmp $01bd
$01ce 31 00 00   lxi sp,$0000
$01d1 af         xra a
$01d2 32 2f 01   sta $012f
$01d5 d3 10      out $10
$01d7 c9         ret
$01d8 af         xra a
$01d9 77         mov m,a
$01da 23         inx h
$01db 0b         dcx b
$01dc b1         ora c
$01dd b0         ora b
$01de c2 d8 01   jnz $01d8
$01e1 c9         ret
$01e2 21 00 00   lxi h,$0000
$01e5 39         dad sp
$01e6 22 0c 02   shld $020c
$01e9 60         mov h,b
$01ea 69         mov l,c
$01eb 32 2f 01   sta $012f
$01ee d3 10      out $10
$01f0 01 00 00   lxi b,$0000
$01f3 f9         sphl
$01f4 3e ff      mvi a,$ff
$01f6 c5         push b
$01f7 c5         push b
$01f8 c5         push b
$01f9 c5         push b
$01fa c5         push b
$01fb c5         push b
$01fc c5         push b
$01fd c5         push b
$01fe c5         push b
$01ff c5         push b
$0200 c5         push b
$0201 c5         push b
$0202 c5         push b
$0203 c5         push b
$0204 c5         push b
$0205 c5         push b
$0206 1b         dcx d
$0207 ba         cmp d
$0208 c2 f6 01   jnz $01f6
$020b 31 00 00   lxi sp,$0000
$020e af         xra a
$020f 32 2f 01   sta $012f
$0212 d3 10      out $10
$0214 c9         ret
$0215 01 00 00   lxi b,$0000
$0218 11 ff 07   lxi d,$07ff
$021b 3e 10      mvi a,$10
$021d c5         push b
$021e d5         push d
$021f cd e2 01   call $01e2
$0222 d1         pop d
$0223 c1         pop b
$0224 3e 14      mvi a,$14
$0226 c5         push b
$0227 d5         push d
$0228 cd e2 01   call $01e2
$022b d1         pop d
$022c c1         pop b
$022d 3e 18      mvi a,$18
$022f c5         push b
$0230 d5         push d
$0231 cd e2 01   call $01e2
$0234 d1         pop d
$0235 c1         pop b
$0236 3e 1c      mvi a,$1c
$0238 cd e2 01   call $01e2
$023b c9         ret
$023c 76         hlt
$023d 3e 88      mvi a,$88
$023f d3 00      out $00
$0241 06 0f      mvi b,$0f
$0243 78         mov a,b
$0244 d3 02      out $02
$0246 7e         mov a,m
$0247 d3 0c      out $0c
$0249 f5         push psw
$024a f1         pop psw
$024b f5         push psw
$024c f1         pop psw
$024d 2b         dcx h
$024e 05         dcr b
$024f d3 0c      out $0c
$0251 f2 43 02   jp $0243
$0254 c9         ret
$0255 76         hlt
$0256 21 00 00   lxi h,$0000
$0259 39         dad sp
$025a 22 cf 01   shld $01cf
$025d eb         xchg
$025e 32 2f 01   sta $012f
$0261 d3 10      out $10
$0263 f9         sphl
$0264 3e 88      mvi a,$88
$0266 d3 00      out $00
$0268 1e 00      mvi e,$00
$026a c1         pop b
$026b 7b         mov a,e
$026c d3 02      out $02
$026e 79         mov a,c
$026f d3 0c      out $0c
$0271 e3         xthl
$0272 e3         xthl
$0273 1c         inr e
$0274 24         inr h
$0275 25         dcr h
$0276 d3 0c      out $0c
$0278 7b         mov a,e
$0279 d3 02      out $02
$027b 78         mov a,b
$027c d3 0c      out $0c
$027e e3         xthl
$027f e3         xthl
$0280 1c         inr e
$0281 24         inr h
$0282 25         dcr h
$0283 d3 0c      out $0c
$0285 7b         mov a,e
$0286 fe 10      cpi $10
$0288 c2 6a 02   jnz $026a
$028b c3 ce 01   jmp $01ce
$028e 21 00 00   lxi h,$0000
$0291 39         dad sp
$0292 22 cf 01   shld $01cf
$0295 eb         xchg
$0296 32 2f 01   sta $012f
$0299 d3 10      out $10
$029b f9         sphl
$029c c1         pop b
$029d c3 ce 01   jmp $01ce
$02a0 22 b0 02   shld $02b0
$02a3 21 00 00   lxi h,$0000
$02a6 39         dad sp
$02a7 22 c0 02   shld $02c0
$02aa 32 2f 01   sta $012f
$02ad d3 10      out $10
$02af 21 00 00   lxi h,$0000
$02b2 f9         sphl
$02b3 eb         xchg
$02b4 2b         dcx h
$02b5 56         mov d,m
$02b6 2b         dcx h
$02b7 5e         mov e,m
$02b8 d5         push d
$02b9 0b         dcx b
$02ba 78         mov a,b
$02bb b1         ora c
$02bc c2 b4 02   jnz $02b4
$02bf 31 00 00   lxi sp,$0000
$02c2 af         xra a
$02c3 32 2f 01   sta $012f
$02c6 d3 10      out $10
$02c8 c9         ret
$02c9 22 d9 02   shld $02d9
$02cc 21 00 00   lxi h,$0000
$02cf 39         dad sp
$02d0 22 34 03   shld $0334
$02d3 32 2f 01   sta $012f
$02d6 d3 10      out $10
$02d8 21 00 00   lxi h,$0000
$02db f9         sphl
$02dc eb         xchg
$02dd 2b         dcx h
$02de 56         mov d,m
$02df 2b         dcx h
$02e0 5e         mov e,m
$02e1 d5         push d
$02e2 2b         dcx h
$02e3 56         mov d,m
$02e4 2b         dcx h
$02e5 5e         mov e,m
$02e6 d5         push d
$02e7 2b         dcx h
$02e8 56         mov d,m
$02e9 2b         dcx h
$02ea 5e         mov e,m
$02eb d5         push d
$02ec 2b         dcx h
$02ed 56         mov d,m
$02ee 2b         dcx h
$02ef 5e         mov e,m
$02f0 d5         push d
$02f1 2b         dcx h
$02f2 56         mov d,m
$02f3 2b         dcx h
$02f4 5e         mov e,m
$02f5 d5         push d
$02f6 2b         dcx h
$02f7 56         mov d,m
$02f8 2b         dcx h
$02f9 5e         mov e,m
$02fa d5         push d
$02fb 2b         dcx h
$02fc 56         mov d,m
$02fd 2b         dcx h
$02fe 5e         mov e,m
$02ff d5         push d
$0300 2b         dcx h
$0301 56         mov d,m
$0302 2b         dcx h
$0303 5e         mov e,m
$0304 d5         push d
$0305 2b         dcx h
$0306 56         mov d,m
$0307 2b         dcx h
$0308 5e         mov e,m
$0309 d5         push d
$030a 2b         dcx h
$030b 56         mov d,m
$030c 2b         dcx h
$030d 5e         mov e,m
$030e d5         push d
$030f 2b         dcx h
$0310 56         mov d,m
$0311 2b         dcx h
$0312 5e         mov e,m
$0313 d5         push d
$0314 2b         dcx h
$0315 56         mov d,m
$0316 2b         dcx h
$0317 5e         mov e,m
$0318 d5         push d
$0319 2b         dcx h
$031a 56         mov d,m
$031b 2b         dcx h
$031c 5e         mov e,m
$031d d5         push d
$031e 2b         dcx h
$031f 56         mov d,m
$0320 2b         dcx h
$0321 5e         mov e,m
$0322 d5         push d
$0323 2b         dcx h
$0324 56         mov d,m
$0325 2b         dcx h
$0326 5e         mov e,m
$0327 d5         push d
$0328 2b         dcx h
$0329 56         mov d,m
$032a 2b         dcx h
$032b 5e         mov e,m
$032c d5         push d
$032d 0b         dcx b
$032e 78         mov a,b
$032f b1         ora c
$0330 c2 dd 02   jnz $02dd
$0333 31 00 00   lxi sp,$0000
$0336 af         xra a
$0337 32 2f 01   sta $012f
$033a d3 10      out $10
$033c c9         ret
$033d e5         push h
$033e 21 02 00   lxi h,$0002
$0341 39         dad sp
$0342 22 cf 01   shld $01cf
$0345 eb         xchg
$0346 d1         pop d
$0347 7a         mov a,d
$0348 32 2f 01   sta $012f
$034b d3 10      out $10
$034d f9         sphl
$034e 69         mov l,c
$034f 60         mov h,b
$0350 c1         pop b
$0351 71         mov m,c
$0352 23         inx h
$0353 70         mov m,b
$0354 23         inx h
$0355 1d         dcr e
$0356 c2 50 03   jnz $0350
$0359 c3 ce 01   jmp $01ce
$035c e3         xthl
$035d 22 d9 03   shld $03d9
$0360 e1         pop h
$0361 22 d2 03   shld $03d2
$0364 f5         push psw
$0365 e1         pop h
$0366 22 7e 7f   shld $7f7e
$0369 21 00 00   lxi h,$0000
$036c 39         dad sp
$036d 22 d5 03   shld $03d5
$0370 c5         push b
$0371 af         xra a
$0372 d3 10      out $10
$0374 31 7e 7f   lxi sp,$7f7e
$0377 c5         push b
$0378 d5         push d
$0379 3e f5      mvi a,$f5
$037b d3 10      out $10
$037d cd 1f b1   call $b11f
$0380 af         xra a
$0381 d3 10      out $10
$0383 3e 8a      mvi a,$8a
$0385 d3 00      out $00
$0387 3e fe      mvi a,$fe
$0389 d3 03      out $03
$038b db 02      in $02
$038d 32 28 01   sta $0128
$0390 3e 7f      mvi a,$7f
$0392 d3 03      out $03
$0394 db 02      in $02
$0396 32 29 01   sta $0129
$0399 3e 88      mvi a,$88
$039b d3 00      out $00
$039d 3a 2d 01   lda $012d
$03a0 d3 03      out $03
$03a2 3e 55      mvi a,$55
$03a4 0f         rrc
$03a5 32 a3 03   sta $03a3
$03a8 d2 af 03   jnc $03af
$03ab 21 2e 01   lxi h,$012e
$03ae 34         inr m
$03af 21 33 01   lxi h,$0133
$03b2 35         dcr m
$03b3 c2 c7 03   jnz $03c7
$03b6 21 31 01   lxi h,$0131
$03b9 7e         mov a,m
$03ba 36 00      mvi m,$00
$03bc 32 30 01   sta $0130
$03bf cd ae 21   call $21ae
$03c2 21 33 01   lxi h,$0133
$03c5 36 32      mvi m,$32
$03c7 d1         pop d
$03c8 c1         pop b
$03c9 f1         pop psw
$03ca 6f         mov l,a
$03cb 3a 2f 01   lda $012f
$03ce d3 10      out $10
$03d0 7d         mov a,l
$03d1 21 00 00   lxi h,$0000
$03d4 31 00 00   lxi sp,$0000
$03d7 fb         ei
$03d8 c3 00 00   jmp $0000
$03db 11 b7 51   lxi d,$51b7
$03de 01 00 80   lxi b,$8000
$03e1 3e e2      mvi a,$e2
$03e3 cd 4d 01   call $014d
$03e6 11 d7 3b   lxi d,$3bd7
$03e9 01 00 80   lxi b,$8000
$03ec 3e e1      mvi a,$e1
$03ee cd 4d 01   call $014d
$03f1 11 91 38   lxi d,$3891
$03f4 01 00 a0   lxi b,$a000
$03f7 3e e2      mvi a,$e2
$03f9 cd 4d 01   call $014d
$03fc 3e e2      mvi a,$e2
$03fe 32 2f 01   sta $012f
$0401 d3 10      out $10
$0403 11 a5 26   lxi d,$26a5
$0406 21 00 a0   lxi h,$a000
$0409 cd 24 83   call $8324
$040c af         xra a
$040d 32 2f 01   sta $012f
$0410 d3 10      out $10
$0412 3e e2      mvi a,$e2
$0414 32 2f 01   sta $012f
$0417 d3 10      out $10
$0419 11 14 27   lxi d,$2714
$041c 21 00 a0   lxi h,$a000
$041f cd 24 83   call $8324
$0422 af         xra a
$0423 32 2f 01   sta $012f
$0426 d3 10      out $10
$0428 11 74 e0   lxi d,$e074
$042b 21 74 40   lxi h,$4074
$042e 01 3a 20   lxi b,$203a
$0431 3e f6      mvi a,$f6
$0433 cd a0 02   call $02a0
$0436 11 99 3a   lxi d,$3a99
$0439 01 00 a0   lxi b,$a000
$043c 3e e2      mvi a,$e2
$043e cd 4d 01   call $014d
$0441 3e e2      mvi a,$e2
$0443 32 2f 01   sta $012f
$0446 d3 10      out $10
$0448 11 83 27   lxi d,$2783
$044b 21 8c 5f   lxi h,$5f8c
$044e cd 24 83   call $8324
$0451 af         xra a
$0452 32 2f 01   sta $012f
$0455 d3 10      out $10
$0457 11 94 c0   lxi d,$c094
$045a 21 08 61   lxi h,$6108
$045d 01 4a 10   lxi b,$104a
$0460 3e f6      mvi a,$f6
$0462 cd a0 02   call $02a0
$0465 11 1b 31   lxi d,$311b
$0468 01 00 80   lxi b,$8000
$046b 3e e0      mvi a,$e0
$046d cd 4d 01   call $014d
$0470 11 f2 27   lxi d,$27f2
$0473 01 00 a0   lxi b,$a000
$0476 3e e2      mvi a,$e2
$0478 cd 4d 01   call $014d
$047b 3e e2      mvi a,$e2
$047d 32 2f 01   sta $012f
$0480 d3 10      out $10
$0482 11 81 24   lxi d,$2481
$0485 21 00 a0   lxi h,$a000
$0488 cd 24 83   call $8324
$048b af         xra a
$048c 32 2f 01   sta $012f
$048f d3 10      out $10
$0491 11 c0 d6   lxi d,$d6c0
$0494 21 c0 36   lxi h,$36c0
$0497 01 60 1b   lxi b,$1b60
$049a 3e f2      mvi a,$f2
$049c cd a0 02   call $02a0
$049f 11 f7 2b   lxi d,$2bf7
$04a2 01 00 a0   lxi b,$a000
$04a5 3e e2      mvi a,$e2
$04a7 cd 4d 01   call $014d
$04aa 3e e2      mvi a,$e2
$04ac 32 2f 01   sta $012f
$04af d3 10      out $10
$04b1 11 58 25   lxi d,$2558
$04b4 21 40 69   lxi h,$6940
$04b7 cd 24 83   call $8324
$04ba af         xra a
$04bb 32 2f 01   sta $012f
$04be d3 10      out $10
$04c0 3e e2      mvi a,$e2
$04c2 32 2f 01   sta $012f
$04c5 d3 10      out $10
$04c7 11 c7 25   lxi d,$25c7
$04ca 21 40 69   lxi h,$6940
$04cd cd 24 83   call $8324
$04d0 af         xra a
$04d1 32 2f 01   sta $012f
$04d4 d3 10      out $10
$04d6 3e e2      mvi a,$e2
$04d8 32 2f 01   sta $012f
$04db d3 10      out $10
$04dd 11 42 26   lxi d,$2642
$04e0 21 40 69   lxi h,$6940
$04e3 cd 24 83   call $8324
$04e6 af         xra a
$04e7 32 2f 01   sta $012f
$04ea d3 10      out $10
$04ec 11 8a e5   lxi d,$e58a
$04ef 21 4a 7c   lxi h,$7c4a
$04f2 01 c5 22   lxi b,$22c5
$04f5 3e f2      mvi a,$f2
$04f7 cd a0 02   call $02a0
$04fa c9         ret

$04fb 00 00 00 00 00 00         ......

$06e1 2a 20 2a 20 2a 20 2c 20   * * * , 
$06e9 2a 20 2a 20 2a 20 2a 20   * * * * 

$07e1 00                        .

$07e2 21 00 00   lxi h,$0000
$07e5 39         dad sp
$07e6 22 93 08   shld $0893
$07e9 60         mov h,b
$07ea 69         mov l,c
$07eb f9         sphl
$07ec c1         pop b
$07ed eb         xchg
$07ee 59         mov e,c
$07ef 50         mov d,b
$07f0 7b         mov a,e
$07f1 0f         rrc
$07f2 5f         mov e,a
$07f3 d2 49 08   jnc $0849
$07f6 c1         pop b
$07f7 71         mov m,c
$07f8 2c         inr l
$07f9 70         mov m,b
$07fa 2c         inr l
$07fb c1         pop b
$07fc 71         mov m,c
$07fd 2c         inr l
$07fe 70         mov m,b
$07ff 2c         inr l
$0800 c1         pop b
$0801 71         mov m,c
$0802 2c         inr l
$0803 70         mov m,b
$0804 2c         inr l
$0805 c1         pop b
$0806 71         mov m,c
$0807 2c         inr l
$0808 70         mov m,b
$0809 2c         inr l
$080a c1         pop b
$080b 71         mov m,c
$080c 2c         inr l
$080d 70         mov m,b
$080e 2c         inr l
$080f c1         pop b
$0810 71         mov m,c
$0811 2c         inr l
$0812 70         mov m,b
$0813 2c         inr l
$0814 c1         pop b
$0815 71         mov m,c
$0816 2c         inr l
$0817 70         mov m,b
$0818 2c         inr l
$0819 c1         pop b
$081a 71         mov m,c
$081b 2c         inr l
$081c 70         mov m,b
$081d 24         inr h
$081e c1         pop b
$081f 71         mov m,c
$0820 2d         dcr l
$0821 70         mov m,b
$0822 2d         dcr l
$0823 c1         pop b
$0824 71         mov m,c
$0825 2d         dcr l
$0826 70         mov m,b
$0827 2d         dcr l
$0828 c1         pop b
$0829 71         mov m,c
$082a 2d         dcr l
$082b 70         mov m,b
$082c 2d         dcr l
$082d c1         pop b
$082e 71         mov m,c
$082f 2d         dcr l
$0830 70         mov m,b
$0831 2d         dcr l
$0832 c1         pop b
$0833 71         mov m,c
$0834 2d         dcr l
$0835 70         mov m,b
$0836 2d         dcr l
$0837 c1         pop b
$0838 71         mov m,c
$0839 2d         dcr l
$083a 70         mov m,b
$083b 2d         dcr l
$083c c1         pop b
$083d 71         mov m,c
$083e 2d         dcr l
$083f 70         mov m,b
$0840 2d         dcr l
$0841 c1         pop b
$0842 71         mov m,c
$0843 2d         dcr l
$0844 70         mov m,b
$0845 25         dcr h
$0846 c3 8a 08   jmp $088a
$0849 af         xra a
$084a 77         mov m,a
$084b 2c         inr l
$084c 77         mov m,a
$084d 2c         inr l
$084e 77         mov m,a
$084f 2c         inr l
$0850 77         mov m,a
$0851 2c         inr l
$0852 77         mov m,a
$0853 2c         inr l
$0854 77         mov m,a
$0855 2c         inr l
$0856 77         mov m,a
$0857 2c         inr l
$0858 77         mov m,a
$0859 2c         inr l
$085a 77         mov m,a
$085b 2c         inr l
$085c 77         mov m,a
$085d 2c         inr l
$085e 77         mov m,a
$085f 2c         inr l
$0860 77         mov m,a
$0861 2c         inr l
$0862 77         mov m,a
$0863 2c         inr l
$0864 77         mov m,a
$0865 2c         inr l
$0866 77         mov m,a
$0867 2c         inr l
$0868 77         mov m,a
$0869 24         inr h
$086a 77         mov m,a
$086b 2d         dcr l
$086c 77         mov m,a
$086d 2d         dcr l
$086e 77         mov m,a
$086f 2d         dcr l
$0870 77         mov m,a
$0871 2d         dcr l
$0872 77         mov m,a
$0873 2d         dcr l
$0874 77         mov m,a
$0875 2d         dcr l
$0876 77         mov m,a
$0877 2d         dcr l
$0878 77         mov m,a
$0879 2d         dcr l
$087a 77         mov m,a
$087b 2d         dcr l
$087c 77         mov m,a
$087d 2d         dcr l
$087e 77         mov m,a
$087f 2d         dcr l
$0880 77         mov m,a
$0881 2d         dcr l
$0882 77         mov m,a
$0883 2d         dcr l
$0884 77         mov m,a
$0885 2d         dcr l
$0886 77         mov m,a
$0887 2d         dcr l
$0888 77         mov m,a
$0889 25         dcr h
$088a 3e 20      mvi a,$20
$088c 84         add h
$088d 67         mov h,a
$088e 15         dcr d
$088f c2 f0 07   jnz $07f0
$0892 31 00 00   lxi sp,$0000
$0895 c9         ret
$0896 06 00      mvi b,$00
$0898 09         dad b
$0899 4e         mov c,m
$089a 23         inx h
$089b 46         mov b,m
$089c c9         ret
$089d 7e         mov a,m
$089e e6 07      ani $07
$08a0 07         rlc
$08a1 c6 02      adi $02
$08a3 4f         mov c,a
$08a4 7e         mov a,m
$08a5 0f         rrc
$08a6 0f         rrc
$08a7 0f         rrc
$08a8 e6 1f      ani $1f
$08aa c6 a0      adi $a0
$08ac 23         inx h
$08ad 23         inx h
$08ae 5e         mov e,m
$08af 57         mov d,a
$08b0 c9         ret
$08b1 7e         mov a,m
$08b2 e6 06      ani $06
$08b4 c6 02      adi $02
$08b6 4f         mov c,a
$08b7 7e         mov a,m
$08b8 0f         rrc
$08b9 0f         rrc
$08ba 0f         rrc
$08bb e6 1f      ani $1f
$08bd c6 a0      adi $a0
$08bf 23         inx h
$08c0 23         inx h
$08c1 5e         mov e,m
$08c2 57         mov d,a
$08c3 c9         ret
$08c4 21 00 00   lxi h,$0000
$08c7 39         dad sp
$08c8 22 cf 01   shld $01cf
$08cb 1c         inr e
$08cc 79         mov a,c
$08cd fe 14      cpi $14
$08cf da d4 08   jc $08d4
$08d2 3e 14      mvi a,$14
$08d4 07         rlc
$08d5 4f         mov c,a
$08d6 78         mov a,b
$08d7 06 00      mvi b,$00
$08d9 21 00 0d   lxi h,$0d00
$08dc 09         dad b
$08dd 46         mov b,m
$08de 23         inx h
$08df 66         mov h,m
$08e0 68         mov l,b
$08e1 e9         pchl
$08e2 eb         xchg
$08e3 57         mov d,a
$08e4 5c         mov e,h
$08e5 3e fa      mvi a,$fa
$08e7 32 2f 01   sta $012f
$08ea d3 10      out $10
$08ec 46         mov b,m
$08ed 2d         dcr l
$08ee 4e         mov c,m
$08ef 3e 18      mvi a,$18
$08f1 32 2f 01   sta $012f
$08f4 d3 10      out $10
$08f6 71         mov m,c
$08f7 2c         inr l
$08f8 70         mov m,b
$08f9 2c         inr l
$08fa f9         sphl
$08fb c1         pop b
$08fc 71         mov m,c
$08fd 2c         inr l
$08fe 70         mov m,b
$08ff 2c         inr l
$0900 c1         pop b
$0901 71         mov m,c
$0902 21 fb 1f   lxi h,$1ffb
$0905 39         dad sp
$0906 d2 e5 08   jnc $08e5
$0909 1c         inr e
$090a 63         mov h,e
$090b 15         dcr d
$090c f2 e5 08   jp $08e5
$090f c3 ce 01   jmp $01ce
$0912 eb         xchg
$0913 57         mov d,a
$0914 5c         mov e,h
$0915 3e fa      mvi a,$fa
$0917 32 2f 01   sta $012f
$091a d3 10      out $10
$091c 46         mov b,m
$091d 2d         dcr l
$091e 4e         mov c,m
$091f 3e 18      mvi a,$18
$0921 32 2f 01   sta $012f
$0924 d3 10      out $10
$0926 71         mov m,c
$0927 2c         inr l
$0928 70         mov m,b
$0929 2c         inr l
$092a f9         sphl
$092b c1         pop b
$092c 71         mov m,c
$092d 2c         inr l
$092e 70         mov m,b
$092f 2c         inr l
$0930 c1         pop b
$0931 71         mov m,c
$0932 2c         inr l
$0933 70         mov m,b
$0934 21 fb 1f   lxi h,$1ffb
$0937 39         dad sp
$0938 d2 15 09   jnc $0915
$093b 1c         inr e
$093c 63         mov h,e
$093d 15         dcr d
$093e f2 15 09   jp $0915
$0941 c3 ce 01   jmp $01ce
$0944 eb         xchg
$0945 57         mov d,a
$0946 5c         mov e,h
$0947 3e fa      mvi a,$fa
$0949 32 2f 01   sta $012f
$094c d3 10      out $10
$094e 46         mov b,m
$094f 2d         dcr l
$0950 4e         mov c,m
$0951 3e 18      mvi a,$18
$0953 32 2f 01   sta $012f
$0956 d3 10      out $10
$0958 71         mov m,c
$0959 2c         inr l
$095a 70         mov m,b
$095b 2c         inr l
$095c f9         sphl
$095d c1         pop b
$095e 71         mov m,c
$095f 2c         inr l
$0960 70         mov m,b
$0961 2c         inr l
$0962 c1         pop b
$0963 71         mov m,c
$0964 2c         inr l
$0965 70         mov m,b
$0966 2c         inr l
$0967 c1         pop b
$0968 71         mov m,c
$0969 21 f9 1f   lxi h,$1ff9
$096c 39         dad sp
$096d d2 47 09   jnc $0947
$0970 1c         inr e
$0971 63         mov h,e
$0972 15         dcr d
$0973 f2 47 09   jp $0947
$0976 c3 ce 01   jmp $01ce
$0979 eb         xchg
$097a 57         mov d,a
$097b 5c         mov e,h
$097c 3e fa      mvi a,$fa
$097e 32 2f 01   sta $012f
$0981 d3 10      out $10
$0983 46         mov b,m
$0984 2d         dcr l
$0985 4e         mov c,m
$0986 3e 18      mvi a,$18
$0988 32 2f 01   sta $012f
$098b d3 10      out $10
$098d 71         mov m,c
$098e 2c         inr l
$098f 70         mov m,b
$0990 2c         inr l
$0991 f9         sphl
$0992 c1         pop b
$0993 71         mov m,c
$0994 2c         inr l
$0995 70         mov m,b
$0996 2c         inr l
$0997 c1         pop b
$0998 71         mov m,c
$0999 2c         inr l
$099a 70         mov m,b
$099b 2c         inr l
$099c c1         pop b
$099d 71         mov m,c
$099e 2c         inr l
$099f 70         mov m,b
$09a0 21 f9 1f   lxi h,$1ff9
$09a3 39         dad sp
$09a4 d2 7c 09   jnc $097c
$09a7 1c         inr e
$09a8 63         mov h,e
$09a9 15         dcr d
$09aa f2 7c 09   jp $097c
$09ad c3 ce 01   jmp $01ce
$09b0 eb         xchg
$09b1 57         mov d,a
$09b2 5c         mov e,h
$09b3 3e fa      mvi a,$fa
$09b5 32 2f 01   sta $012f
$09b8 d3 10      out $10
$09ba 46         mov b,m
$09bb 2d         dcr l
$09bc 4e         mov c,m
$09bd 3e 18      mvi a,$18
$09bf 32 2f 01   sta $012f
$09c2 d3 10      out $10
$09c4 71         mov m,c
$09c5 2c         inr l
$09c6 70         mov m,b
$09c7 2c         inr l
$09c8 f9         sphl
$09c9 c1         pop b
$09ca 71         mov m,c
$09cb 2c         inr l
$09cc 70         mov m,b
$09cd 2c         inr l
$09ce c1         pop b
$09cf 71         mov m,c
$09d0 2c         inr l
$09d1 70         mov m,b
$09d2 2c         inr l
$09d3 c1         pop b
$09d4 71         mov m,c
$09d5 2c         inr l
$09d6 70         mov m,b
$09d7 2c         inr l
$09d8 c1         pop b
$09d9 71         mov m,c
$09da 21 f7 1f   lxi h,$1ff7
$09dd 39         dad sp
$09de d2 b3 09   jnc $09b3
$09e1 1c         inr e
$09e2 63         mov h,e
$09e3 15         dcr d
$09e4 f2 b3 09   jp $09b3
$09e7 c3 ce 01   jmp $01ce
$09ea eb         xchg
$09eb 57         mov d,a
$09ec 5c         mov e,h
$09ed 3e fa      mvi a,$fa
$09ef 32 2f 01   sta $012f
$09f2 d3 10      out $10
$09f4 46         mov b,m
$09f5 2d         dcr l
$09f6 4e         mov c,m
$09f7 3e 18      mvi a,$18
$09f9 32 2f 01   sta $012f
$09fc d3 10      out $10
$09fe 71         mov m,c
$09ff 2c         inr l
$0a00 70         mov m,b
$0a01 2c         inr l
$0a02 f9         sphl
$0a03 c1         pop b
$0a04 71         mov m,c
$0a05 2c         inr l
$0a06 70         mov m,b
$0a07 2c         inr l
$0a08 c1         pop b
$0a09 71         mov m,c
$0a0a 2c         inr l
$0a0b 70         mov m,b
$0a0c 2c         inr l
$0a0d c1         pop b
$0a0e 71         mov m,c
$0a0f 2c         inr l
$0a10 70         mov m,b
$0a11 2c         inr l
$0a12 c1         pop b
$0a13 71         mov m,c
$0a14 2c         inr l
$0a15 70         mov m,b
$0a16 21 f7 1f   lxi h,$1ff7
$0a19 39         dad sp
$0a1a d2 ed 09   jnc $09ed
$0a1d 1c         inr e
$0a1e 63         mov h,e
$0a1f 15         dcr d
$0a20 f2 ed 09   jp $09ed
$0a23 c3 ce 01   jmp $01ce
$0a26 eb         xchg
$0a27 57         mov d,a
$0a28 5c         mov e,h
$0a29 3e fa      mvi a,$fa
$0a2b 32 2f 01   sta $012f
$0a2e d3 10      out $10
$0a30 46         mov b,m
$0a31 2d         dcr l
$0a32 4e         mov c,m
$0a33 3e 18      mvi a,$18
$0a35 32 2f 01   sta $012f
$0a38 d3 10      out $10
$0a3a 71         mov m,c
$0a3b 2c         inr l
$0a3c 70         mov m,b
$0a3d 2c         inr l
$0a3e f9         sphl
$0a3f c1         pop b
$0a40 71         mov m,c
$0a41 2c         inr l
$0a42 70         mov m,b
$0a43 2c         inr l
$0a44 c1         pop b
$0a45 71         mov m,c
$0a46 2c         inr l
$0a47 70         mov m,b
$0a48 2c         inr l
$0a49 c1         pop b
$0a4a 71         mov m,c
$0a4b 2c         inr l
$0a4c 70         mov m,b
$0a4d 2c         inr l
$0a4e c1         pop b
$0a4f 71         mov m,c
$0a50 2c         inr l
$0a51 70         mov m,b
$0a52 2c         inr l
$0a53 c1         pop b
$0a54 71         mov m,c
$0a55 21 f5 1f   lxi h,$1ff5
$0a58 39         dad sp
$0a59 d2 29 0a   jnc $0a29
$0a5c 1c         inr e
$0a5d 63         mov h,e
$0a5e 15         dcr d
$0a5f f2 29 0a   jp $0a29
$0a62 c3 ce 01   jmp $01ce
$0a65 eb         xchg
$0a66 57         mov d,a
$0a67 5c         mov e,h
$0a68 3e fa      mvi a,$fa
$0a6a 32 2f 01   sta $012f
$0a6d d3 10      out $10
$0a6f 46         mov b,m
$0a70 2d         dcr l
$0a71 4e         mov c,m
$0a72 3e 18      mvi a,$18
$0a74 32 2f 01   sta $012f
$0a77 d3 10      out $10
$0a79 71         mov m,c
$0a7a 2c         inr l
$0a7b 70         mov m,b
$0a7c 2c         inr l
$0a7d f9         sphl
$0a7e c1         pop b
$0a7f 71         mov m,c
$0a80 2c         inr l
$0a81 70         mov m,b
$0a82 2c         inr l
$0a83 c1         pop b
$0a84 71         mov m,c
$0a85 2c         inr l
$0a86 70         mov m,b
$0a87 2c         inr l
$0a88 c1         pop b
$0a89 71         mov m,c
$0a8a 2c         inr l
$0a8b 70         mov m,b
$0a8c 2c         inr l
$0a8d c1         pop b
$0a8e 71         mov m,c
$0a8f 2c         inr l
$0a90 70         mov m,b
$0a91 2c         inr l
$0a92 c1         pop b
$0a93 71         mov m,c
$0a94 2c         inr l
$0a95 70         mov m,b
$0a96 21 f5 1f   lxi h,$1ff5
$0a99 39         dad sp
$0a9a d2 68 0a   jnc $0a68
$0a9d 1c         inr e
$0a9e 63         mov h,e
$0a9f 15         dcr d
$0aa0 f2 68 0a   jp $0a68
$0aa3 c3 ce 01   jmp $01ce
$0aa6 eb         xchg
$0aa7 57         mov d,a
$0aa8 5c         mov e,h
$0aa9 3e fa      mvi a,$fa
$0aab 32 2f 01   sta $012f
$0aae d3 10      out $10
$0ab0 46         mov b,m
$0ab1 2d         dcr l
$0ab2 4e         mov c,m
$0ab3 3e 18      mvi a,$18
$0ab5 32 2f 01   sta $012f
$0ab8 d3 10      out $10
$0aba 71         mov m,c
$0abb 2c         inr l
$0abc 70         mov m,b
$0abd 2c         inr l
$0abe f9         sphl
$0abf c1         pop b
$0ac0 71         mov m,c
$0ac1 2c         inr l
$0ac2 70         mov m,b
$0ac3 2c         inr l
$0ac4 c1         pop b
$0ac5 71         mov m,c
$0ac6 2c         inr l
$0ac7 70         mov m,b
$0ac8 2c         inr l
$0ac9 c1         pop b
$0aca 71         mov m,c
$0acb 2c         inr l
$0acc 70         mov m,b
$0acd 2c         inr l
$0ace c1         pop b
$0acf 71         mov m,c
$0ad0 2c         inr l
$0ad1 70         mov m,b
$0ad2 2c         inr l
$0ad3 c1         pop b
$0ad4 71         mov m,c
$0ad5 2c         inr l
$0ad6 70         mov m,b
$0ad7 2c         inr l
$0ad8 c1         pop b
$0ad9 71         mov m,c
$0ada 21 f3 1f   lxi h,$1ff3
$0add 39         dad sp
$0ade d2 a9 0a   jnc $0aa9
$0ae1 1c         inr e
$0ae2 63         mov h,e
$0ae3 15         dcr d
$0ae4 f2 a9 0a   jp $0aa9
$0ae7 c3 ce 01   jmp $01ce
$0aea eb         xchg
$0aeb 57         mov d,a
$0aec 5c         mov e,h
$0aed 3e fa      mvi a,$fa
$0aef 32 2f 01   sta $012f
$0af2 d3 10      out $10
$0af4 46         mov b,m
$0af5 2d         dcr l
$0af6 4e         mov c,m
$0af7 3e 18      mvi a,$18
$0af9 32 2f 01   sta $012f
$0afc d3 10      out $10
$0afe 71         mov m,c
$0aff 2c         inr l
$0b00 70         mov m,b
$0b01 2c         inr l
$0b02 f9         sphl
$0b03 c1         pop b
$0b04 71         mov m,c
$0b05 2c         inr l
$0b06 70         mov m,b
$0b07 2c         inr l
$0b08 c1         pop b
$0b09 71         mov m,c
$0b0a 2c         inr l
$0b0b 70         mov m,b
$0b0c 2c         inr l
$0b0d c1         pop b
$0b0e 71         mov m,c
$0b0f 2c         inr l
$0b10 70         mov m,b
$0b11 2c         inr l
$0b12 c1         pop b
$0b13 71         mov m,c
$0b14 2c         inr l
$0b15 70         mov m,b
$0b16 2c         inr l
$0b17 c1         pop b
$0b18 71         mov m,c
$0b19 2c         inr l
$0b1a 70         mov m,b
$0b1b 2c         inr l
$0b1c c1         pop b
$0b1d 71         mov m,c
$0b1e 2c         inr l
$0b1f 70         mov m,b
$0b20 21 f3 1f   lxi h,$1ff3
$0b23 39         dad sp
$0b24 d2 ed 0a   jnc $0aed
$0b27 1c         inr e
$0b28 63         mov h,e
$0b29 15         dcr d
$0b2a f2 ed 0a   jp $0aed
$0b2d c3 ce 01   jmp $01ce
$0b30 eb         xchg
$0b31 57         mov d,a
$0b32 5c         mov e,h
$0b33 3e fa      mvi a,$fa
$0b35 32 2f 01   sta $012f
$0b38 d3 10      out $10
$0b3a 46         mov b,m
$0b3b 2d         dcr l
$0b3c 4e         mov c,m
$0b3d 3e 18      mvi a,$18
$0b3f 32 2f 01   sta $012f
$0b42 d3 10      out $10
$0b44 71         mov m,c
$0b45 2c         inr l
$0b46 70         mov m,b
$0b47 2c         inr l
$0b48 f9         sphl
$0b49 c1         pop b
$0b4a 71         mov m,c
$0b4b 2c         inr l
$0b4c 70         mov m,b
$0b4d 2c         inr l
$0b4e c1         pop b
$0b4f 71         mov m,c
$0b50 2c         inr l
$0b51 70         mov m,b
$0b52 2c         inr l
$0b53 c1         pop b
$0b54 71         mov m,c
$0b55 2c         inr l
$0b56 70         mov m,b
$0b57 2c         inr l
$0b58 c1         pop b
$0b59 71         mov m,c
$0b5a 2c         inr l
$0b5b 70         mov m,b
$0b5c 2c         inr l
$0b5d c1         pop b
$0b5e 71         mov m,c
$0b5f 2c         inr l
$0b60 70         mov m,b
$0b61 2c         inr l
$0b62 c1         pop b
$0b63 71         mov m,c
$0b64 2c         inr l
$0b65 70         mov m,b
$0b66 2c         inr l
$0b67 c1         pop b
$0b68 71         mov m,c
$0b69 21 f1 1f   lxi h,$1ff1
$0b6c 39         dad sp
$0b6d d2 33 0b   jnc $0b33
$0b70 1c         inr e
$0b71 63         mov h,e
$0b72 15         dcr d
$0b73 f2 33 0b   jp $0b33
$0b76 c3 ce 01   jmp $01ce
$0b79 eb         xchg
$0b7a 57         mov d,a
$0b7b 5c         mov e,h
$0b7c 3e fa      mvi a,$fa
$0b7e 32 2f 01   sta $012f
$0b81 d3 10      out $10
$0b83 46         mov b,m
$0b84 2d         dcr l
$0b85 4e         mov c,m
$0b86 3e 18      mvi a,$18
$0b88 32 2f 01   sta $012f
$0b8b d3 10      out $10
$0b8d 71         mov m,c
$0b8e 2c         inr l
$0b8f 70         mov m,b
$0b90 2c         inr l
$0b91 f9         sphl
$0b92 c1         pop b
$0b93 71         mov m,c
$0b94 2c         inr l
$0b95 70         mov m,b
$0b96 2c         inr l
$0b97 c1         pop b
$0b98 71         mov m,c
$0b99 2c         inr l
$0b9a 70         mov m,b
$0b9b 2c         inr l
$0b9c c1         pop b
$0b9d 71         mov m,c
$0b9e 2c         inr l
$0b9f 70         mov m,b
$0ba0 2c         inr l
$0ba1 c1         pop b
$0ba2 71         mov m,c
$0ba3 2c         inr l
$0ba4 70         mov m,b
$0ba5 2c         inr l
$0ba6 c1         pop b
$0ba7 71         mov m,c
$0ba8 2c         inr l
$0ba9 70         mov m,b
$0baa 2c         inr l
$0bab c1         pop b
$0bac 71         mov m,c
$0bad 2c         inr l
$0bae 70         mov m,b
$0baf 2c         inr l
$0bb0 c1         pop b
$0bb1 71         mov m,c
$0bb2 2c         inr l
$0bb3 70         mov m,b
$0bb4 21 f1 1f   lxi h,$1ff1
$0bb7 39         dad sp
$0bb8 d2 7c 0b   jnc $0b7c
$0bbb 1c         inr e
$0bbc 63         mov h,e
$0bbd 15         dcr d
$0bbe f2 7c 0b   jp $0b7c
$0bc1 c3 ce 01   jmp $01ce
$0bc4 eb         xchg
$0bc5 57         mov d,a
$0bc6 5c         mov e,h
$0bc7 3e fa      mvi a,$fa
$0bc9 32 2f 01   sta $012f
$0bcc d3 10      out $10
$0bce 46         mov b,m
$0bcf 2d         dcr l
$0bd0 4e         mov c,m
$0bd1 3e 18      mvi a,$18
$0bd3 32 2f 01   sta $012f
$0bd6 d3 10      out $10
$0bd8 71         mov m,c
$0bd9 2c         inr l
$0bda 70         mov m,b
$0bdb 2c         inr l
$0bdc f9         sphl
$0bdd c1         pop b
$0bde 71         mov m,c
$0bdf 2c         inr l
$0be0 70         mov m,b
$0be1 2c         inr l
$0be2 c1         pop b
$0be3 71         mov m,c
$0be4 2c         inr l
$0be5 70         mov m,b
$0be6 2c         inr l
$0be7 c1         pop b
$0be8 71         mov m,c
$0be9 2c         inr l
$0bea 70         mov m,b
$0beb 2c         inr l
$0bec c1         pop b
$0bed 71         mov m,c
$0bee 2c         inr l
$0bef 70         mov m,b
$0bf0 2c         inr l
$0bf1 c1         pop b
$0bf2 71         mov m,c
$0bf3 2c         inr l
$0bf4 70         mov m,b
$0bf5 2c         inr l
$0bf6 c1         pop b
$0bf7 71         mov m,c
$0bf8 2c         inr l
$0bf9 70         mov m,b
$0bfa 2c         inr l
$0bfb c1         pop b
$0bfc 71         mov m,c
$0bfd 2c         inr l
$0bfe 70         mov m,b
$0bff 2c         inr l
$0c00 c1         pop b
$0c01 71         mov m,c
$0c02 21 ef 1f   lxi h,$1fef
$0c05 39         dad sp
$0c06 d2 c7 0b   jnc $0bc7
$0c09 1c         inr e
$0c0a 63         mov h,e
$0c0b 15         dcr d
$0c0c f2 c7 0b   jp $0bc7
$0c0f c3 ce 01   jmp $01ce
$0c12 eb         xchg
$0c13 57         mov d,a
$0c14 5c         mov e,h
$0c15 3e fa      mvi a,$fa
$0c17 32 2f 01   sta $012f
$0c1a d3 10      out $10
$0c1c 46         mov b,m
$0c1d 2d         dcr l
$0c1e 4e         mov c,m
$0c1f 3e 18      mvi a,$18
$0c21 32 2f 01   sta $012f
$0c24 d3 10      out $10
$0c26 71         mov m,c
$0c27 2c         inr l
$0c28 70         mov m,b
$0c29 2c         inr l
$0c2a f9         sphl
$0c2b c1         pop b
$0c2c 71         mov m,c
$0c2d 2c         inr l
$0c2e 70         mov m,b
$0c2f 2c         inr l
$0c30 c1         pop b
$0c31 71         mov m,c
$0c32 2c         inr l
$0c33 70         mov m,b
$0c34 2c         inr l
$0c35 c1         pop b
$0c36 71         mov m,c
$0c37 2c         inr l
$0c38 70         mov m,b
$0c39 2c         inr l
$0c3a c1         pop b
$0c3b 71         mov m,c
$0c3c 2c         inr l
$0c3d 70         mov m,b
$0c3e 2c         inr l
$0c3f c1         pop b
$0c40 71         mov m,c
$0c41 2c         inr l
$0c42 70         mov m,b
$0c43 2c         inr l
$0c44 c1         pop b
$0c45 71         mov m,c
$0c46 2c         inr l
$0c47 70         mov m,b
$0c48 2c         inr l
$0c49 c1         pop b
$0c4a 71         mov m,c
$0c4b 2c         inr l
$0c4c 70         mov m,b
$0c4d 2c         inr l
$0c4e c1         pop b
$0c4f 71         mov m,c
$0c50 2c         inr l
$0c51 70         mov m,b
$0c52 21 ef 1f   lxi h,$1fef
$0c55 39         dad sp
$0c56 d2 15 0c   jnc $0c15
$0c59 1c         inr e
$0c5a 63         mov h,e
$0c5b 15         dcr d
$0c5c f2 15 0c   jp $0c15
$0c5f c3 ce 01   jmp $01ce
$0c62 eb         xchg
$0c63 57         mov d,a
$0c64 5c         mov e,h
$0c65 3e fa      mvi a,$fa
$0c67 32 2f 01   sta $012f
$0c6a d3 10      out $10
$0c6c 46         mov b,m
$0c6d 2d         dcr l
$0c6e 4e         mov c,m
$0c6f 3e 18      mvi a,$18
$0c71 32 2f 01   sta $012f
$0c74 d3 10      out $10
$0c76 71         mov m,c
$0c77 2c         inr l
$0c78 70         mov m,b
$0c79 2c         inr l
$0c7a f9         sphl
$0c7b c1         pop b
$0c7c 71         mov m,c
$0c7d 2c         inr l
$0c7e 70         mov m,b
$0c7f 2c         inr l
$0c80 c1         pop b
$0c81 71         mov m,c
$0c82 2c         inr l
$0c83 70         mov m,b
$0c84 2c         inr l
$0c85 c1         pop b
$0c86 71         mov m,c
$0c87 2c         inr l
$0c88 70         mov m,b
$0c89 2c         inr l
$0c8a c1         pop b
$0c8b 71         mov m,c
$0c8c 2c         inr l
$0c8d 70         mov m,b
$0c8e 2c         inr l
$0c8f c1         pop b
$0c90 71         mov m,c
$0c91 2c         inr l
$0c92 70         mov m,b
$0c93 2c         inr l
$0c94 c1         pop b
$0c95 71         mov m,c
$0c96 2c         inr l
$0c97 70         mov m,b
$0c98 2c         inr l
$0c99 c1         pop b
$0c9a 71         mov m,c
$0c9b 2c         inr l
$0c9c 70         mov m,b
$0c9d 2c         inr l
$0c9e c1         pop b
$0c9f 71         mov m,c
$0ca0 2c         inr l
$0ca1 70         mov m,b
$0ca2 2c         inr l
$0ca3 c1         pop b
$0ca4 71         mov m,c
$0ca5 21 ed 1f   lxi h,$1fed
$0ca8 39         dad sp
$0ca9 d2 65 0c   jnc $0c65
$0cac 1c         inr e
$0cad 63         mov h,e
$0cae 15         dcr d
$0caf f2 65 0c   jp $0c65
$0cb2 c3 ce 01   jmp $01ce
$0cb5 eb         xchg
$0cb6 57         mov d,a
$0cb7 5c         mov e,h
$0cb8 3e fa      mvi a,$fa
$0cba 32 2f 01   sta $012f
$0cbd d3 10      out $10
$0cbf 46         mov b,m
$0cc0 2d         dcr l
$0cc1 4e         mov c,m
$0cc2 3e 18      mvi a,$18
$0cc4 32 2f 01   sta $012f
$0cc7 d3 10      out $10
$0cc9 71         mov m,c
$0cca 2c         inr l
$0ccb 70         mov m,b
$0ccc 2c         inr l
$0ccd f9         sphl
$0cce c1         pop b
$0ccf 71         mov m,c
$0cd0 2c         inr l
$0cd1 70         mov m,b
$0cd2 2c         inr l
$0cd3 c1         pop b
$0cd4 71         mov m,c
$0cd5 2c         inr l
$0cd6 70         mov m,b
$0cd7 2c         inr l
$0cd8 c1         pop b
$0cd9 71         mov m,c
$0cda 2c         inr l
$0cdb 70         mov m,b
$0cdc 2c         inr l
$0cdd c1         pop b
$0cde 71         mov m,c
$0cdf 2c         inr l
$0ce0 70         mov m,b
$0ce1 2c         inr l
$0ce2 c1         pop b
$0ce3 71         mov m,c
$0ce4 2c         inr l
$0ce5 70         mov m,b
$0ce6 2c         inr l
$0ce7 c1         pop b
$0ce8 71         mov m,c
$0ce9 2c         inr l
$0cea 70         mov m,b
$0ceb 2c         inr l
$0cec c1         pop b
$0ced 71         mov m,c
$0cee 2c         inr l
$0cef 70         mov m,b
$0cf0 2c         inr l
$0cf1 c1         pop b
$0cf2 71         mov m,c
$0cf3 2c         inr l
$0cf4 70         mov m,b
$0cf5 2c         inr l
$0cf6 c1         pop b
$0cf7 71         mov m,c
$0cf8 2c         inr l
$0cf9 70         mov m,b
$0cfa 21 ed 1f   lxi h,$1fed
$0cfd 39         dad sp
$0cfe d2 b8 0c   jnc $0cb8
$0d01 1c         inr e
$0d02 63         mov h,e
$0d03 15         dcr d
$0d04 f2 b8 0c   jp $0cb8
$0d07 c3 ce 01   jmp $01ce

$0d0a e2 08 12 09 44 09 79 09   â...D.y.
$0d12 b0 09 ea 09 26 0a 65 0a   °.ê.&.e.
$0d1a a6 0a ea 0a 30 0b 79 0b   ¦.ê.0.y.
$0d22 c4 0b 12 0c 62 0c b5 0c   Ä...b.µ.

$0d2a 1c         inr e
$0d2b 7d         mov a,l
$0d2c fe 14      cpi $14
$0d2e da 33 0d   jc $0d33
$0d31 3e 14      mvi a,$14
$0d33 07         rlc
$0d34 4f         mov c,a
$0d35 06 00      mvi b,$00
$0d37 7c         mov a,h
$0d38 21 00 00   lxi h,$0000
$0d3b 39         dad sp
$0d3c 22 cf 01   shld $01cf
$0d3f 21 a6 11   lxi h,$11a6
$0d42 09         dad b
$0d43 46         mov b,m
$0d44 23         inx h
$0d45 66         mov h,m
$0d46 68         mov l,b
$0d47 e9         pchl
$0d48 eb         xchg
$0d49 57         mov d,a
$0d4a 3e ff      mvi a,$ff
$0d4c 32 2f 01   sta $012f
$0d4f d3 10      out $10
$0d51 46         mov b,m
$0d52 2d         dcr l
$0d53 4e         mov c,m
$0d54 3e fe      mvi a,$fe
$0d56 32 2f 01   sta $012f
$0d59 d3 10      out $10
$0d5b 71         mov m,c
$0d5c 2c         inr l
$0d5d 70         mov m,b
$0d5e 2c         inr l
$0d5f f9         sphl
$0d60 c1         pop b
$0d61 71         mov m,c
$0d62 2c         inr l
$0d63 70         mov m,b
$0d64 2c         inr l
$0d65 c1         pop b
$0d66 71         mov m,c
$0d67 31 80 7f   lxi sp,$7f80
$0d6a 01 fd 1f   lxi b,$1ffd
$0d6d 09         dad b
$0d6e d2 4a 0d   jnc $0d4a
$0d71 3e a1      mvi a,$a1
$0d73 84         add h
$0d74 67         mov h,a
$0d75 15         dcr d
$0d76 f2 4a 0d   jp $0d4a
$0d79 c3 ce 01   jmp $01ce
$0d7c eb         xchg
$0d7d 57         mov d,a
$0d7e 3e ff      mvi a,$ff
$0d80 32 2f 01   sta $012f
$0d83 d3 10      out $10
$0d85 46         mov b,m
$0d86 2d         dcr l
$0d87 4e         mov c,m
$0d88 3e fe      mvi a,$fe
$0d8a 32 2f 01   sta $012f
$0d8d d3 10      out $10
$0d8f 71         mov m,c
$0d90 2c         inr l
$0d91 70         mov m,b
$0d92 2c         inr l
$0d93 f9         sphl
$0d94 c1         pop b
$0d95 71         mov m,c
$0d96 2c         inr l
$0d97 70         mov m,b
$0d98 2c         inr l
$0d99 c1         pop b
$0d9a 71         mov m,c
$0d9b 2c         inr l
$0d9c 70         mov m,b
$0d9d 31 80 7f   lxi sp,$7f80
$0da0 01 fc 1f   lxi b,$1ffc
$0da3 09         dad b
$0da4 d2 7e 0d   jnc $0d7e
$0da7 3e a1      mvi a,$a1
$0da9 84         add h
$0daa 67         mov h,a
$0dab 15         dcr d
$0dac f2 7e 0d   jp $0d7e
$0daf c3 ce 01   jmp $01ce
$0db2 eb         xchg
$0db3 57         mov d,a
$0db4 3e ff      mvi a,$ff
$0db6 32 2f 01   sta $012f
$0db9 d3 10      out $10
$0dbb 46         mov b,m
$0dbc 2d         dcr l
$0dbd 4e         mov c,m
$0dbe 3e fe      mvi a,$fe
$0dc0 32 2f 01   sta $012f
$0dc3 d3 10      out $10
$0dc5 71         mov m,c
$0dc6 2c         inr l
$0dc7 70         mov m,b
$0dc8 2c         inr l
$0dc9 f9         sphl
$0dca c1         pop b
$0dcb 71         mov m,c
$0dcc 2c         inr l
$0dcd 70         mov m,b
$0dce 2c         inr l
$0dcf c1         pop b
$0dd0 71         mov m,c
$0dd1 2c         inr l
$0dd2 70         mov m,b
$0dd3 2c         inr l
$0dd4 c1         pop b
$0dd5 71         mov m,c
$0dd6 31 80 7f   lxi sp,$7f80
$0dd9 01 fb 1f   lxi b,$1ffb
$0ddc 09         dad b
$0ddd d2 b4 0d   jnc $0db4
$0de0 3e a1      mvi a,$a1
$0de2 84         add h
$0de3 67         mov h,a
$0de4 15         dcr d
$0de5 f2 b4 0d   jp $0db4
$0de8 c3 ce 01   jmp $01ce
$0deb eb         xchg
$0dec 57         mov d,a
$0ded 3e ff      mvi a,$ff
$0def 32 2f 01   sta $012f
$0df2 d3 10      out $10
$0df4 46         mov b,m
$0df5 2d         dcr l
$0df6 4e         mov c,m
$0df7 3e fe      mvi a,$fe
$0df9 32 2f 01   sta $012f
$0dfc d3 10      out $10
$0dfe 71         mov m,c
$0dff 2c         inr l
$0e00 70         mov m,b
$0e01 2c         inr l
$0e02 f9         sphl
$0e03 c1         pop b
$0e04 71         mov m,c
$0e05 2c         inr l
$0e06 70         mov m,b
$0e07 2c         inr l
$0e08 c1         pop b
$0e09 71         mov m,c
$0e0a 2c         inr l
$0e0b 70         mov m,b
$0e0c 2c         inr l
$0e0d c1         pop b
$0e0e 71         mov m,c
$0e0f 2c         inr l
$0e10 70         mov m,b
$0e11 31 80 7f   lxi sp,$7f80
$0e14 01 fa 1f   lxi b,$1ffa
$0e17 09         dad b
$0e18 d2 ed 0d   jnc $0ded
$0e1b 3e a1      mvi a,$a1
$0e1d 84         add h
$0e1e 67         mov h,a
$0e1f 15         dcr d
$0e20 f2 ed 0d   jp $0ded
$0e23 c3 ce 01   jmp $01ce
$0e26 eb         xchg
$0e27 57         mov d,a
$0e28 3e ff      mvi a,$ff
$0e2a 32 2f 01   sta $012f
$0e2d d3 10      out $10
$0e2f 46         mov b,m
$0e30 2d         dcr l
$0e31 4e         mov c,m
$0e32 3e fe      mvi a,$fe
$0e34 32 2f 01   sta $012f
$0e37 d3 10      out $10
$0e39 71         mov m,c
$0e3a 2c         inr l
$0e3b 70         mov m,b
$0e3c 2c         inr l
$0e3d f9         sphl
$0e3e c1         pop b
$0e3f 71         mov m,c
$0e40 2c         inr l
$0e41 70         mov m,b
$0e42 2c         inr l
$0e43 c1         pop b
$0e44 71         mov m,c
$0e45 2c         inr l
$0e46 70         mov m,b
$0e47 2c         inr l
$0e48 c1         pop b
$0e49 71         mov m,c
$0e4a 2c         inr l
$0e4b 70         mov m,b
$0e4c 2c         inr l
$0e4d c1         pop b
$0e4e 71         mov m,c
$0e4f 31 80 7f   lxi sp,$7f80
$0e52 01 f9 1f   lxi b,$1ff9
$0e55 09         dad b
$0e56 d2 28 0e   jnc $0e28
$0e59 3e a1      mvi a,$a1
$0e5b 84         add h
$0e5c 67         mov h,a
$0e5d 15         dcr d
$0e5e f2 28 0e   jp $0e28
$0e61 c3 ce 01   jmp $01ce
$0e64 eb         xchg
$0e65 57         mov d,a
$0e66 3e ff      mvi a,$ff
$0e68 32 2f 01   sta $012f
$0e6b d3 10      out $10
$0e6d 46         mov b,m
$0e6e 2d         dcr l
$0e6f 4e         mov c,m
$0e70 3e fe      mvi a,$fe
$0e72 32 2f 01   sta $012f
$0e75 d3 10      out $10
$0e77 71         mov m,c
$0e78 2c         inr l
$0e79 70         mov m,b
$0e7a 2c         inr l
$0e7b f9         sphl
$0e7c c1         pop b
$0e7d 71         mov m,c
$0e7e 2c         inr l
$0e7f 70         mov m,b
$0e80 2c         inr l
$0e81 c1         pop b
$0e82 71         mov m,c
$0e83 2c         inr l
$0e84 70         mov m,b
$0e85 2c         inr l
$0e86 c1         pop b
$0e87 71         mov m,c
$0e88 2c         inr l
$0e89 70         mov m,b
$0e8a 2c         inr l
$0e8b c1         pop b
$0e8c 71         mov m,c
$0e8d 2c         inr l
$0e8e 70         mov m,b
$0e8f 31 80 7f   lxi sp,$7f80
$0e92 01 f8 1f   lxi b,$1ff8
$0e95 09         dad b
$0e96 d2 66 0e   jnc $0e66
$0e99 3e a1      mvi a,$a1
$0e9b 84         add h
$0e9c 67         mov h,a
$0e9d 15         dcr d
$0e9e f2 66 0e   jp $0e66
$0ea1 c3 ce 01   jmp $01ce
$0ea4 eb         xchg
$0ea5 57         mov d,a
$0ea6 3e ff      mvi a,$ff
$0ea8 32 2f 01   sta $012f
$0eab d3 10      out $10
$0ead 46         mov b,m
$0eae 2d         dcr l
$0eaf 4e         mov c,m
$0eb0 3e fe      mvi a,$fe
$0eb2 32 2f 01   sta $012f
$0eb5 d3 10      out $10
$0eb7 71         mov m,c
$0eb8 2c         inr l
$0eb9 70         mov m,b
$0eba 2c         inr l
$0ebb f9         sphl
$0ebc c1         pop b
$0ebd 71         mov m,c
$0ebe 2c         inr l
$0ebf 70         mov m,b
$0ec0 2c         inr l
$0ec1 c1         pop b
$0ec2 71         mov m,c
$0ec3 2c         inr l
$0ec4 70         mov m,b
$0ec5 2c         inr l
$0ec6 c1         pop b
$0ec7 71         mov m,c
$0ec8 2c         inr l
$0ec9 70         mov m,b
$0eca 2c         inr l
$0ecb c1         pop b
$0ecc 71         mov m,c
$0ecd 2c         inr l
$0ece 70         mov m,b
$0ecf 2c         inr l
$0ed0 c1         pop b
$0ed1 71         mov m,c
$0ed2 31 80 7f   lxi sp,$7f80
$0ed5 01 f7 1f   lxi b,$1ff7
$0ed8 09         dad b
$0ed9 d2 a6 0e   jnc $0ea6
$0edc 3e a1      mvi a,$a1
$0ede 84         add h
$0edf 67         mov h,a
$0ee0 15         dcr d
$0ee1 f2 a6 0e   jp $0ea6
$0ee4 c3 ce 01   jmp $01ce
$0ee7 eb         xchg
$0ee8 57         mov d,a
$0ee9 3e ff      mvi a,$ff
$0eeb 32 2f 01   sta $012f
$0eee d3 10      out $10
$0ef0 46         mov b,m
$0ef1 2d         dcr l
$0ef2 4e         mov c,m
$0ef3 3e fe      mvi a,$fe
$0ef5 32 2f 01   sta $012f
$0ef8 d3 10      out $10
$0efa 71         mov m,c
$0efb 2c         inr l
$0efc 70         mov m,b
$0efd 2c         inr l
$0efe f9         sphl
$0eff c1         pop b
$0f00 71         mov m,c
$0f01 2c         inr l
$0f02 70         mov m,b
$0f03 2c         inr l
$0f04 c1         pop b
$0f05 71         mov m,c
$0f06 2c         inr l
$0f07 70         mov m,b
$0f08 2c         inr l
$0f09 c1         pop b
$0f0a 71         mov m,c
$0f0b 2c         inr l
$0f0c 70         mov m,b
$0f0d 2c         inr l
$0f0e c1         pop b
$0f0f 71         mov m,c
$0f10 2c         inr l
$0f11 70         mov m,b
$0f12 2c         inr l
$0f13 c1         pop b
$0f14 71         mov m,c
$0f15 2c         inr l
$0f16 70         mov m,b
$0f17 31 80 7f   lxi sp,$7f80
$0f1a 01 f6 1f   lxi b,$1ff6
$0f1d 09         dad b
$0f1e d2 e9 0e   jnc $0ee9
$0f21 3e a1      mvi a,$a1
$0f23 84         add h
$0f24 67         mov h,a
$0f25 15         dcr d
$0f26 f2 e9 0e   jp $0ee9
$0f29 c3 ce 01   jmp $01ce
$0f2c eb         xchg
$0f2d 57         mov d,a
$0f2e 3e ff      mvi a,$ff
$0f30 32 2f 01   sta $012f
$0f33 d3 10      out $10
$0f35 46         mov b,m
$0f36 2d         dcr l
$0f37 4e         mov c,m
$0f38 3e fe      mvi a,$fe
$0f3a 32 2f 01   sta $012f
$0f3d d3 10      out $10
$0f3f 71         mov m,c
$0f40 2c         inr l
$0f41 70         mov m,b
$0f42 2c         inr l
$0f43 f9         sphl
$0f44 c1         pop b
$0f45 71         mov m,c
$0f46 2c         inr l
$0f47 70         mov m,b
$0f48 2c         inr l
$0f49 c1         pop b
$0f4a 71         mov m,c
$0f4b 2c         inr l
$0f4c 70         mov m,b
$0f4d 2c         inr l
$0f4e c1         pop b
$0f4f 71         mov m,c
$0f50 2c         inr l
$0f51 70         mov m,b
$0f52 2c         inr l
$0f53 c1         pop b
$0f54 71         mov m,c
$0f55 2c         inr l
$0f56 70         mov m,b
$0f57 2c         inr l
$0f58 c1         pop b
$0f59 71         mov m,c
$0f5a 2c         inr l
$0f5b 70         mov m,b
$0f5c 2c         inr l
$0f5d c1         pop b
$0f5e 71         mov m,c
$0f5f 31 80 7f   lxi sp,$7f80
$0f62 01 f5 1f   lxi b,$1ff5
$0f65 09         dad b
$0f66 d2 2e 0f   jnc $0f2e
$0f69 3e a1      mvi a,$a1
$0f6b 84         add h
$0f6c 67         mov h,a
$0f6d 15         dcr d
$0f6e f2 2e 0f   jp $0f2e
$0f71 c3 ce 01   jmp $01ce
$0f74 eb         xchg
$0f75 57         mov d,a
$0f76 3e ff      mvi a,$ff
$0f78 32 2f 01   sta $012f
$0f7b d3 10      out $10
$0f7d 46         mov b,m
$0f7e 2d         dcr l
$0f7f 4e         mov c,m
$0f80 3e fe      mvi a,$fe
$0f82 32 2f 01   sta $012f
$0f85 d3 10      out $10
$0f87 71         mov m,c
$0f88 2c         inr l
$0f89 70         mov m,b
$0f8a 2c         inr l
$0f8b f9         sphl
$0f8c c1         pop b
$0f8d 71         mov m,c
$0f8e 2c         inr l
$0f8f 70         mov m,b
$0f90 2c         inr l
$0f91 c1         pop b
$0f92 71         mov m,c
$0f93 2c         inr l
$0f94 70         mov m,b
$0f95 2c         inr l
$0f96 c1         pop b
$0f97 71         mov m,c
$0f98 2c         inr l
$0f99 70         mov m,b
$0f9a 2c         inr l
$0f9b c1         pop b
$0f9c 71         mov m,c
$0f9d 2c         inr l
$0f9e 70         mov m,b
$0f9f 2c         inr l
$0fa0 c1         pop b
$0fa1 71         mov m,c
$0fa2 2c         inr l
$0fa3 70         mov m,b
$0fa4 2c         inr l
$0fa5 c1         pop b
$0fa6 71         mov m,c
$0fa7 2c         inr l
$0fa8 70         mov m,b
$0fa9 31 80 7f   lxi sp,$7f80
$0fac 01 f4 1f   lxi b,$1ff4
$0faf 09         dad b
$0fb0 d2 76 0f   jnc $0f76
$0fb3 3e a1      mvi a,$a1
$0fb5 84         add h
$0fb6 67         mov h,a
$0fb7 15         dcr d
$0fb8 f2 76 0f   jp $0f76
$0fbb c3 ce 01   jmp $01ce
$0fbe eb         xchg
$0fbf 57         mov d,a
$0fc0 3e ff      mvi a,$ff
$0fc2 32 2f 01   sta $012f
$0fc5 d3 10      out $10
$0fc7 46         mov b,m
$0fc8 2d         dcr l
$0fc9 4e         mov c,m
$0fca 3e fe      mvi a,$fe
$0fcc 32 2f 01   sta $012f
$0fcf d3 10      out $10
$0fd1 71         mov m,c
$0fd2 2c         inr l
$0fd3 70         mov m,b
$0fd4 2c         inr l
$0fd5 f9         sphl
$0fd6 c1         pop b
$0fd7 71         mov m,c
$0fd8 2c         inr l
$0fd9 70         mov m,b
$0fda 2c         inr l
$0fdb c1         pop b
$0fdc 71         mov m,c
$0fdd 2c         inr l
$0fde 70         mov m,b
$0fdf 2c         inr l
$0fe0 c1         pop b
$0fe1 71         mov m,c
$0fe2 2c         inr l
$0fe3 70         mov m,b
$0fe4 2c         inr l
$0fe5 c1         pop b
$0fe6 71         mov m,c
$0fe7 2c         inr l
$0fe8 70         mov m,b
$0fe9 2c         inr l
$0fea c1         pop b
$0feb 71         mov m,c
$0fec 2c         inr l
$0fed 70         mov m,b
$0fee 2c         inr l
$0fef c1         pop b
$0ff0 71         mov m,c
$0ff1 2c         inr l
$0ff2 70         mov m,b
$0ff3 2c         inr l
$0ff4 c1         pop b
$0ff5 71         mov m,c
$0ff6 31 80 7f   lxi sp,$7f80
$0ff9 01 f3 1f   lxi b,$1ff3
$0ffc 09         dad b
$0ffd d2 c0 0f   jnc $0fc0
$1000 3e a1      mvi a,$a1
$1002 84         add h
$1003 67         mov h,a
$1004 15         dcr d
$1005 f2 c0 0f   jp $0fc0
$1008 c3 ce 01   jmp $01ce
$100b eb         xchg
$100c 57         mov d,a
$100d 3e ff      mvi a,$ff
$100f 32 2f 01   sta $012f
$1012 d3 10      out $10
$1014 46         mov b,m
$1015 2d         dcr l
$1016 4e         mov c,m
$1017 3e fe      mvi a,$fe
$1019 32 2f 01   sta $012f
$101c d3 10      out $10
$101e 71         mov m,c
$101f 2c         inr l
$1020 70         mov m,b
$1021 2c         inr l
$1022 f9         sphl
$1023 c1         pop b
$1024 71         mov m,c
$1025 2c         inr l
$1026 70         mov m,b
$1027 2c         inr l
$1028 c1         pop b
$1029 71         mov m,c
$102a 2c         inr l
$102b 70         mov m,b
$102c 2c         inr l
$102d c1         pop b
$102e 71         mov m,c
$102f 2c         inr l
$1030 70         mov m,b
$1031 2c         inr l
$1032 c1         pop b
$1033 71         mov m,c
$1034 2c         inr l
$1035 70         mov m,b
$1036 2c         inr l
$1037 c1         pop b
$1038 71         mov m,c
$1039 2c         inr l
$103a 70         mov m,b
$103b 2c         inr l
$103c c1         pop b
$103d 71         mov m,c
$103e 2c         inr l
$103f 70         mov m,b
$1040 2c         inr l
$1041 c1         pop b
$1042 71         mov m,c
$1043 2c         inr l
$1044 70         mov m,b
$1045 31 80 7f   lxi sp,$7f80
$1048 01 f2 1f   lxi b,$1ff2
$104b 09         dad b
$104c d2 0d 10   jnc $100d
$104f 3e a1      mvi a,$a1
$1051 84         add h
$1052 67         mov h,a
$1053 15         dcr d
$1054 f2 0d 10   jp $100d
$1057 c3 ce 01   jmp $01ce
$105a eb         xchg
$105b 57         mov d,a
$105c 3e ff      mvi a,$ff
$105e 32 2f 01   sta $012f
$1061 d3 10      out $10
$1063 46         mov b,m
$1064 2d         dcr l
$1065 4e         mov c,m
$1066 3e fe      mvi a,$fe
$1068 32 2f 01   sta $012f
$106b d3 10      out $10
$106d 71         mov m,c
$106e 2c         inr l
$106f 70         mov m,b
$1070 2c         inr l
$1071 f9         sphl
$1072 c1         pop b
$1073 71         mov m,c
$1074 2c         inr l
$1075 70         mov m,b
$1076 2c         inr l
$1077 c1         pop b
$1078 71         mov m,c
$1079 2c         inr l
$107a 70         mov m,b
$107b 2c         inr l
$107c c1         pop b
$107d 71         mov m,c
$107e 2c         inr l
$107f 70         mov m,b
$1080 2c         inr l
$1081 c1         pop b
$1082 71         mov m,c
$1083 2c         inr l
$1084 70         mov m,b
$1085 2c         inr l
$1086 c1         pop b
$1087 71         mov m,c
$1088 2c         inr l
$1089 70         mov m,b
$108a 2c         inr l
$108b c1         pop b
$108c 71         mov m,c
$108d 2c         inr l
$108e 70         mov m,b
$108f 2c         inr l
$1090 c1         pop b
$1091 71         mov m,c
$1092 2c         inr l
$1093 70         mov m,b
$1094 2c         inr l
$1095 c1         pop b
$1096 71         mov m,c
$1097 31 80 7f   lxi sp,$7f80
$109a 01 f1 1f   lxi b,$1ff1
$109d 09         dad b
$109e d2 5c 10   jnc $105c
$10a1 3e a1      mvi a,$a1
$10a3 84         add h
$10a4 67         mov h,a
$10a5 15         dcr d
$10a6 f2 5c 10   jp $105c
$10a9 c3 ce 01   jmp $01ce
$10ac eb         xchg
$10ad 57         mov d,a
$10ae 3e ff      mvi a,$ff
$10b0 32 2f 01   sta $012f
$10b3 d3 10      out $10
$10b5 46         mov b,m
$10b6 2d         dcr l
$10b7 4e         mov c,m
$10b8 3e fe      mvi a,$fe
$10ba 32 2f 01   sta $012f
$10bd d3 10      out $10
$10bf 71         mov m,c
$10c0 2c         inr l
$10c1 70         mov m,b
$10c2 2c         inr l
$10c3 f9         sphl
$10c4 c1         pop b
$10c5 71         mov m,c
$10c6 2c         inr l
$10c7 70         mov m,b
$10c8 2c         inr l
$10c9 c1         pop b
$10ca 71         mov m,c
$10cb 2c         inr l
$10cc 70         mov m,b
$10cd 2c         inr l
$10ce c1         pop b
$10cf 71         mov m,c
$10d0 2c         inr l
$10d1 70         mov m,b
$10d2 2c         inr l
$10d3 c1         pop b
$10d4 71         mov m,c
$10d5 2c         inr l
$10d6 70         mov m,b
$10d7 2c         inr l
$10d8 c1         pop b
$10d9 71         mov m,c
$10da 2c         inr l
$10db 70         mov m,b
$10dc 2c         inr l
$10dd c1         pop b
$10de 71         mov m,c
$10df 2c         inr l
$10e0 70         mov m,b
$10e1 2c         inr l
$10e2 c1         pop b
$10e3 71         mov m,c
$10e4 2c         inr l
$10e5 70         mov m,b
$10e6 2c         inr l
$10e7 c1         pop b
$10e8 71         mov m,c
$10e9 2c         inr l
$10ea 70         mov m,b
$10eb 31 80 7f   lxi sp,$7f80
$10ee 01 f0 1f   lxi b,$1ff0
$10f1 09         dad b
$10f2 d2 ae 10   jnc $10ae
$10f5 3e a1      mvi a,$a1
$10f7 84         add h
$10f8 67         mov h,a
$10f9 15         dcr d
$10fa f2 ae 10   jp $10ae
$10fd c3 ce 01   jmp $01ce
$1100 eb         xchg
$1101 57         mov d,a
$1102 3e ff      mvi a,$ff
$1104 32 2f 01   sta $012f
$1107 d3 10      out $10
$1109 46         mov b,m
$110a 2d         dcr l
$110b 4e         mov c,m
$110c 3e fe      mvi a,$fe
$110e 32 2f 01   sta $012f
$1111 d3 10      out $10
$1113 71         mov m,c
$1114 2c         inr l
$1115 70         mov m,b
$1116 2c         inr l
$1117 f9         sphl
$1118 c1         pop b
$1119 71         mov m,c
$111a 2c         inr l
$111b 70         mov m,b
$111c 2c         inr l
$111d c1         pop b
$111e 71         mov m,c
$111f 2c         inr l
$1120 70         mov m,b
$1121 2c         inr l
$1122 c1         pop b
$1123 71         mov m,c
$1124 2c         inr l
$1125 70         mov m,b
$1126 2c         inr l
$1127 c1         pop b
$1128 71         mov m,c
$1129 2c         inr l
$112a 70         mov m,b
$112b 2c         inr l
$112c c1         pop b
$112d 71         mov m,c
$112e 2c         inr l
$112f 70         mov m,b
$1130 2c         inr l
$1131 c1         pop b
$1132 71         mov m,c
$1133 2c         inr l
$1134 70         mov m,b
$1135 2c         inr l
$1136 c1         pop b
$1137 71         mov m,c
$1138 2c         inr l
$1139 70         mov m,b
$113a 2c         inr l
$113b c1         pop b
$113c 71         mov m,c
$113d 2c         inr l
$113e 70         mov m,b
$113f 2c         inr l
$1140 c1         pop b
$1141 71         mov m,c
$1142 31 80 7f   lxi sp,$7f80
$1145 01 ef 1f   lxi b,$1fef
$1148 09         dad b
$1149 d2 02 11   jnc $1102
$114c 3e a1      mvi a,$a1
$114e 84         add h
$114f 67         mov h,a
$1150 15         dcr d
$1151 f2 02 11   jp $1102
$1154 c3 ce 01   jmp $01ce
$1157 eb         xchg
$1158 57         mov d,a
$1159 3e ff      mvi a,$ff
$115b 32 2f 01   sta $012f
$115e d3 10      out $10
$1160 46         mov b,m
$1161 2d         dcr l
$1162 4e         mov c,m
$1163 3e fe      mvi a,$fe
$1165 32 2f 01   sta $012f
$1168 d3 10      out $10
$116a 71         mov m,c
$116b 2c         inr l
$116c 70         mov m,b
$116d 2c         inr l
$116e f9         sphl
$116f c1         pop b
$1170 71         mov m,c
$1171 2c         inr l
$1172 70         mov m,b
$1173 2c         inr l
$1174 c1         pop b
$1175 71         mov m,c
$1176 2c         inr l
$1177 70         mov m,b
$1178 2c         inr l
$1179 c1         pop b
$117a 71         mov m,c
$117b 2c         inr l
$117c 70         mov m,b
$117d 2c         inr l
$117e c1         pop b
$117f 71         mov m,c
$1180 2c         inr l
$1181 70         mov m,b
$1182 2c         inr l
$1183 c1         pop b
$1184 71         mov m,c
$1185 2c         inr l
$1186 70         mov m,b
$1187 2c         inr l
$1188 c1         pop b
$1189 71         mov m,c
$118a 2c         inr l
$118b 70         mov m,b
$118c 2c         inr l
$118d c1         pop b
$118e 71         mov m,c
$118f 2c         inr l
$1190 70         mov m,b
$1191 2c         inr l
$1192 c1         pop b
$1193 71         mov m,c
$1194 2c         inr l
$1195 70         mov m,b
$1196 2c         inr l
$1197 c1         pop b
$1198 71         mov m,c
$1199 2c         inr l
$119a 70         mov m,b
$119b 31 80 7f   lxi sp,$7f80
$119e 01 ee 1f   lxi b,$1fee
$11a1 09         dad b
$11a2 d2 59 11   jnc $1159
$11a5 3e a1      mvi a,$a1
$11a7 84         add h
$11a8 67         mov h,a
$11a9 15         dcr d
$11aa f2 59 11   jp $1159
$11ad c3 ce 01   jmp $01ce

$11b0 48 0d 7c 0d b2 0d eb 0d   H.|.².ë.
$11b8 26 0e 64 0e a4 0e e7 0e   &.d.¤.ç.
$11c0 2c 0f 74 0f be 0f 0b 10   ,.t.¾...
$11c8 5a 10 ac 10 00 11 57 11   Z.¬...W.
$11d0 41 12 e5 15 d8 15 01 64   A.å.Ø..d
$11d8 00 00 00 00 00 01 00 00   ........
$11e0 00 00 00 00 00 00 00 00   ........
$11e8 00 00 00 00 00 00 00 00   ........
$11f0 37 18 05 14 1d 14 f7 14   7.....÷.
$11f8 4d 14 bf 13 00 15 bf 13   M.¿...¿.
$1200 36 14 00 15 bf 13 bf 13   6...¿.¿.
$1208 f7 14 bf 13 bf 13 bf 13   ÷.¿.¿.¿.
$1210 00 00 00 00 00 00 0c 15   ........
$1218 00 00 00 00 09 15         ......

$121e cd 95 15   call $1595
$1221 21 ff ff   lxi h,$ffff
$1224 22 28 01   shld $0128
$1227 21 e7 11   lxi h,$11e7
$122a cd 9d 08   call $089d
$122d eb         xchg
$122e 22 e0 11   shld $11e0
$1231 21 05 00   lxi h,$0005
$1234 22 e4 11   shld $11e4
$1237 c9         ret
$1238 78         mov a,b
$1239 32 e7 11   sta $11e7
$123c 79         mov a,c
$123d 32 e9 11   sta $11e9
$1240 c9         ret
$1241 3a d8 11   lda $11d8
$1244 fe 01      cpi $01
$1246 ca 79 15   jz $1579
$1249 2a 28 01   lhld $0128
$124c 3e 7f      mvi a,$7f
$124e bc         cmp h
$124f ca 49 15   jz $1549
$1252 3e 0f      mvi a,$0f
$1254 b5         ora l
$1255 3c         inr a
$1256 ca bc 15   jz $15bc
$1259 3a 2a 01   lda $012a
$125c bd         cmp l
$125d c2 77 12   jnz $1277
$1260 21 da 11   lxi h,$11da
$1263 7e         mov a,m
$1264 c6 41      adi $41
$1266 77         mov m,a
$1267 d2 74 12   jnc $1274
$126a 2a db 11   lhld $11db
$126d 5e         mov e,m
$126e 23         inx h
$126f 56         mov d,m
$1270 19         dad d
$1271 22 db 11   shld $11db
$1274 c3 78 13   jmp $1378
$1277 7d         mov a,l
$1278 fe bf      cpi $bf
$127a c2 97 12   jnz $1297
$127d 21 00 02   lxi h,$0200
$1280 22 ea 11   shld $11ea
$1283 21 00 00   lxi h,$0000
$1286 22 ec 11   shld $11ec
$1289 3e 01      mvi a,$01
$128b 32 dd 11   sta $11dd
$128e 21 e0 24   lxi h,$24e0
$1291 22 db 11   shld $11db
$1294 c3 78 13   jmp $1378
$1297 fe 9f      cpi $9f
$1299 c2 b3 12   jnz $12b3
$129c 21 6a 01   lxi h,$016a
$129f 22 ea 11   shld $11ea
$12a2 22 ec 11   shld $11ec
$12a5 3e 01      mvi a,$01
$12a7 32 dd 11   sta $11dd
$12aa 21 e0 24   lxi h,$24e0
$12ad 22 db 11   shld $11db
$12b0 c3 78 13   jmp $1378
$12b3 fe 3f      cpi $3f
$12b5 c2 d2 12   jnz $12d2
$12b8 21 6a 01   lxi h,$016a
$12bb 22 ea 11   shld $11ea
$12be 21 96 fe   lxi h,$fe96
$12c1 22 ec 11   shld $11ec
$12c4 3e 01      mvi a,$01
$12c6 32 dd 11   sta $11dd
$12c9 21 e0 24   lxi h,$24e0
$12cc 22 db 11   shld $11db
$12cf c3 78 13   jmp $1378
$12d2 fe ef      cpi $ef
$12d4 c2 f0 12   jnz $12f0
$12d7 21 00 fe   lxi h,$fe00
$12da 22 ea 11   shld $11ea
$12dd 21 00 00   lxi h,$0000
$12e0 22 ec 11   shld $11ec
$12e3 af         xra a
$12e4 32 dd 11   sta $11dd
$12e7 21 08 25   lxi h,$2508
$12ea 22 db 11   shld $11db
$12ed c3 78 13   jmp $1378
$12f0 fe cf      cpi $cf
$12f2 c2 0e 13   jnz $130e
$12f5 21 96 fe   lxi h,$fe96
$12f8 22 ea 11   shld $11ea
$12fb 21 6a 01   lxi h,$016a
$12fe 22 ec 11   shld $11ec
$1301 af         xra a
$1302 32 dd 11   sta $11dd
$1305 21 08 25   lxi h,$2508
$1308 22 db 11   shld $11db
$130b c3 78 13   jmp $1378
$130e fe 6f      cpi $6f
$1310 c2 29 13   jnz $1329
$1313 21 96 fe   lxi h,$fe96
$1316 22 ea 11   shld $11ea
$1319 22 ec 11   shld $11ec
$131c af         xra a
$131d 32 dd 11   sta $11dd
$1320 21 08 25   lxi h,$2508
$1323 22 db 11   shld $11db
$1326 c3 78 13   jmp $1378
$1329 fe df      cpi $df
$132b c2 53 13   jnz $1353
$132e 21 00 00   lxi h,$0000
$1331 22 ea 11   shld $11ea
$1334 21 00 02   lxi h,$0200
$1337 22 ec 11   shld $11ec
$133a 3a dd 11   lda $11dd
$133d b7         ora a
$133e ca 4a 13   jz $134a
$1341 21 e0 24   lxi h,$24e0
$1344 22 db 11   shld $11db
$1347 c3 78 13   jmp $1378
$134a 21 08 25   lxi h,$2508
$134d 22 db 11   shld $11db
$1350 c3 78 13   jmp $1378
$1353 fe 7f      cpi $7f
$1355 c0         rnz
$1356 21 00 00   lxi h,$0000
$1359 22 ea 11   shld $11ea
$135c 21 00 fe   lxi h,$fe00
$135f 22 ec 11   shld $11ec
$1362 3a dd 11   lda $11dd
$1365 b7         ora a
$1366 ca 72 13   jz $1372
$1369 21 e0 24   lxi h,$24e0
$136c 22 db 11   shld $11db
$136f c3 78 13   jmp $1378
$1372 21 08 25   lxi h,$2508
$1375 22 db 11   shld $11db
$1378 2a e6 11   lhld $11e6
$137b eb         xchg
$137c 2a ea 11   lhld $11ea
$137f 19         dad d
$1380 22 34 01   shld $0134
$1383 44         mov b,h
$1384 2a e8 11   lhld $11e8
$1387 eb         xchg
$1388 2a ec 11   lhld $11ec
$138b 19         dad d
$138c 22 36 01   shld $0136
$138f 50         mov d,b
$1390 5c         mov e,h
$1391 01 0a 0e   lxi b,$0e0a
$1394 3e 43      mvi a,$43
$1396 32 2f 01   sta $012f
$1399 d3 10      out $10
$139b cd 59 21   call $2159
$139e 3e 00      mvi a,$00
$13a0 32 2f 01   sta $012f
$13a3 d3 10      out $10
$13a5 ca b3 13   jz $13b3
$13a8 21 f0 11   lxi h,$11f0
$13ab 06 00      mvi b,$00
$13ad 09         dad b
$13ae 5e         mov e,m
$13af 23         inx h
$13b0 56         mov d,m
$13b1 eb         xchg
$13b2 e9         pchl
$13b3 2a 34 01   lhld $0134
$13b6 22 e6 11   shld $11e6
$13b9 2a 36 01   lhld $0136
$13bc 22 e8 11   shld $11e8
$13bf 21 e7 11   lxi h,$11e7
$13c2 56         mov d,m
$13c3 23         inx h
$13c4 23         inx h
$13c5 5e         mov e,m
$13c6 01 0a 0e   lxi b,$0e0a
$13c9 3e 43      mvi a,$43
$13cb 32 2f 01   sta $012f
$13ce d3 10      out $10
$13d0 cd 2b 21   call $212b
$13d3 3e 00      mvi a,$00
$13d5 32 2f 01   sta $012f
$13d8 d3 10      out $10
$13da c8         rz
$13db 21 27 21   lxi h,$2127
$13de 0e 04      mvi c,$04
$13e0 7e         mov a,m
$13e1 e5         push h
$13e2 e6 07      ani $07
$13e4 ca fe 13   jz $13fe
$13e7 07         rlc
$13e8 5f         mov e,a
$13e9 16 00      mvi d,$00
$13eb 7e         mov a,m
$13ec 0f         rrc
$13ed 0f         rrc
$13ee 0f         rrc
$13ef e6 1f      ani $1f
$13f1 21 0e 12   lxi h,$120e
$13f4 19         dad d
$13f5 5e         mov e,m
$13f6 23         inx h
$13f7 56         mov d,m
$13f8 eb         xchg
$13f9 11 fe 13   lxi d,$13fe
$13fc d5         push d
$13fd e9         pchl
$13fe e1         pop h
$13ff 23         inx h
$1400 0d         dcr c
$1401 c2 e0 13   jnz $13e0
$1404 c9         ret
$1405 3a 35 01   lda $0135
$1408 2f         cma
$1409 e6 0f      ani $0f
$140b 4f         mov c,a
$140c 3a 37 01   lda $0137
$140f c6 0a      adi $0a
$1411 e6 0f      ani $0f
$1413 b9         cmp c
$1414 ca 88 14   jz $1488
$1417 d2 65 14   jnc $1465
$141a c3 76 14   jmp $1476
$141d 3a 35 01   lda $0135
$1420 c6 0e      adi $0e
$1422 e6 0f      ani $0f
$1424 4f         mov c,a
$1425 3a 37 01   lda $0137
$1428 c6 0a      adi $0a
$142a e6 0f      ani $0f
$142c b9         cmp c
$142d ca ac 14   jz $14ac
$1430 da 76 14   jc $1476
$1433 c3 9b 14   jmp $149b
$1436 3a 35 01   lda $0135
$1439 2f         cma
$143a e6 0f      ani $0f
$143c 4f         mov c,a
$143d 3a 37 01   lda $0137
$1440 2f         cma
$1441 e6 0f      ani $0f
$1443 b9         cmp c
$1444 ca d1 14   jz $14d1
$1447 da bf 14   jc $14bf
$144a c3 65 14   jmp $1465
$144d 3a 35 01   lda $0135
$1450 c6 0e      adi $0e
$1452 e6 0f      ani $0f
$1454 4f         mov c,a
$1455 3a 37 01   lda $0137
$1458 2f         cma
$1459 e6 0f      ani $0f
$145b b9         cmp c
$145c ca e4 14   jz $14e4
$145f da bf 14   jc $14bf
$1462 c3 9b 14   jmp $149b
$1465 3a 35 01   lda $0135
$1468 37         stc
$1469 89         adc c
$146a 32 e7 11   sta $11e7
$146d 2a 36 01   lhld $0136
$1470 22 e8 11   shld $11e8
$1473 c3 bf 13   jmp $13bf
$1476 2a 34 01   lhld $0134
$1479 22 e6 11   shld $11e6
$147c 4f         mov c,a
$147d 3a 37 01   lda $0137
$1480 37         stc
$1481 99         sbb c
$1482 32 e9 11   sta $11e9
$1485 c3 bf 13   jmp $13bf
$1488 21 35 01   lxi h,$0135
$148b 37         stc
$148c 8e         adc m
$148d 32 e7 11   sta $11e7
$1490 23         inx h
$1491 23         inx h
$1492 7e         mov a,m
$1493 37         stc
$1494 99         sbb c
$1495 32 e9 11   sta $11e9
$1498 c3 bf 13   jmp $13bf
$149b 3a 35 01   lda $0135
$149e 37         stc
$149f 99         sbb c
$14a0 32 e7 11   sta $11e7
$14a3 2a 36 01   lhld $0136
$14a6 22 e8 11   shld $11e8
$14a9 c3 bf 13   jmp $13bf
$14ac 21 35 01   lxi h,$0135
$14af 96         sub m
$14b0 2f         cma
$14b1 32 e7 11   sta $11e7
$14b4 23         inx h
$14b5 23         inx h
$14b6 7e         mov a,m
$14b7 37         stc
$14b8 99         sbb c
$14b9 32 e9 11   sta $11e9
$14bc c3 bf 13   jmp $13bf
$14bf 2a 34 01   lhld $0134
$14c2 22 e6 11   shld $11e6
$14c5 4f         mov c,a
$14c6 3a 37 01   lda $0137
$14c9 37         stc
$14ca 89         adc c
$14cb 32 e9 11   sta $11e9
$14ce c3 bf 13   jmp $13bf
$14d1 21 35 01   lxi h,$0135
$14d4 37         stc
$14d5 8e         adc m
$14d6 32 e7 11   sta $11e7
$14d9 23         inx h
$14da 23         inx h
$14db 7e         mov a,m
$14dc 37         stc
$14dd 89         adc c
$14de 32 e9 11   sta $11e9
$14e1 c3 bf 13   jmp $13bf
$14e4 21 35 01   lxi h,$0135
$14e7 96         sub m
$14e8 2f         cma
$14e9 32 e7 11   sta $11e7
$14ec 23         inx h
$14ed 23         inx h
$14ee 7e         mov a,m
$14ef 37         stc
$14f0 89         adc c
$14f1 32 e9 11   sta $11e9
$14f4 c3 bf 13   jmp $13bf
$14f7 2a 34 01   lhld $0134
$14fa 22 e6 11   shld $11e6
$14fd c3 bf 13   jmp $13bf
$1500 2a 36 01   lhld $0136
$1503 22 e8 11   shld $11e8
$1506 c3 bf 13   jmp $13bf
$1509 f1         pop psw
$150a f1         pop psw
$150b c9         ret
$150c e1         pop h
$150d 32 00 05   sta $0500
$1510 3e 01      mvi a,$01
$1512 32 e1 07   sta $07e1
$1515 c1         pop b
$1516 3a e7 11   lda $11e7
$1519 fe e1      cpi $e1
$151b d2 31 15   jnc $1531
$151e fe 10      cpi $10
$1520 da 37 15   jc $1537
$1523 3a e9 11   lda $11e9
$1526 fe d5      cpi $d5
$1528 d2 3d 15   jnc $153d
$152b fe 10      cpi $10
$152d da 43 15   jc $1543
$1530 c9         ret
$1531 3e 10      mvi a,$10
$1533 32 e7 11   sta $11e7
$1536 c9         ret
$1537 3e e1      mvi a,$e1
$1539 32 e7 11   sta $11e7
$153c c9         ret
$153d 3e 10      mvi a,$10
$153f 32 e9 11   sta $11e9
$1542 c9         ret
$1543 3e d5      mvi a,$d5
$1545 32 e9 11   sta $11e9
$1548 c9         ret
$1549 3e 01      mvi a,$01
$154b 32 d8 11   sta $11d8
$154e 3e 0c      mvi a,$0c
$1550 32 d9 11   sta $11d9
$1553 af         xra a
$1554 32 da 11   sta $11da
$1557 21 00 00   lxi h,$0000
$155a 22 ea 11   shld $11ea
$155d 22 ec 11   shld $11ec
$1560 3a dd 11   lda $11dd
$1563 b7         ora a
$1564 ca 70 15   jz $1570
$1567 21 30 25   lxi h,$2530
$156a 22 db 11   shld $11db
$156d c3 0d 1d   jmp $1d0d
$1570 21 44 25   lxi h,$2544
$1573 22 db 11   shld $11db
$1576 c3 0d 1d   jmp $1d0d
$1579 21 da 11   lxi h,$11da
$157c 7e         mov a,m
$157d c6 32      adi $32
$157f 77         mov m,a
$1580 d2 8d 15   jnc $158d
$1583 2a db 11   lhld $11db
$1586 5e         mov e,m
$1587 23         inx h
$1588 56         mov d,m
$1589 19         dad d
$158a 22 db 11   shld $11db
$158d 21 d9 11   lxi h,$11d9
$1590 35         dcr m
$1591 c0         rnz
$1592 c3 95 15   jmp $1595
$1595 3e 00      mvi a,$00
$1597 32 d8 11   sta $11d8
$159a af         xra a
$159b 32 da 11   sta $11da
$159e 21 00 00   lxi h,$0000
$15a1 22 ea 11   shld $11ea
$15a4 22 ec 11   shld $11ec
$15a7 3a dd 11   lda $11dd
$15aa b7         ora a
$15ab ca b5 15   jz $15b5
$15ae 21 90 24   lxi h,$2490
$15b1 22 db 11   shld $11db
$15b4 c9         ret
$15b5 21 b8 24   lxi h,$24b8
$15b8 22 db 11   shld $11db
$15bb c9         ret
$15bc 3a 2a 01   lda $012a
$15bf bd         cmp l
$15c0 c2 95 15   jnz $1595
$15c3 21 da 11   lxi h,$11da
$15c6 7e         mov a,m
$15c7 c6 04      adi $04
$15c9 77         mov m,a
$15ca d2 d7 15   jnc $15d7
$15cd 2a db 11   lhld $11db
$15d0 5e         mov e,m
$15d1 23         inx h
$15d2 56         mov d,m
$15d3 19         dad d
$15d4 22 db 11   shld $11db
$15d7 c9         ret
$15d8 21 d7 11   lxi h,$11d7
$15db 7e         mov a,m
$15dc 91         sub c
$15dd 77         mov m,a
$15de f5         push psw
$15df cd e8 23   call $23e8
$15e2 f1         pop psw
$15e3 d0         rnc
$15e4 c9         ret
$15e5 21 e7 11   lxi h,$11e7
$15e8 cd b1 08   call $08b1
$15eb 2a db 11   lhld $11db
$15ee cd 96 08   call $0896
$15f1 3e f2      mvi a,$f2
$15f3 32 2f 01   sta $012f
$15f6 d3 10      out $10
$15f8 cd 83 81   call $8183
$15fb af         xra a
$15fc 32 2f 01   sta $012f
$15ff d3 10      out $10
$1601 21 de 11   lxi h,$11de
$1604 71         mov m,c
$1605 23         inx h
$1606 70         mov m,b
$1607 eb         xchg
$1608 22 e2 11   shld $11e2
$160b c9         ret
$160c 2a e0 11   lhld $11e0
$160f eb         xchg
$1610 2a de 11   lhld $11de
$1613 7c         mov a,h
$1614 ba         cmp d
$1615 da 19 16   jc $1619
$1618 62         mov h,d
$1619 7d         mov a,l
$161a bb         cmp e
$161b da 1f 16   jc $161f
$161e 6b         mov l,e
$161f e5         push h
$1620 2a e4 11   lhld $11e4
$1623 19         dad d
$1624 e5         push h
$1625 2a de 11   lhld $11de
$1628 22 e0 11   shld $11e0
$162b eb         xchg
$162c 2a e2 11   lhld $11e2
$162f 22 e4 11   shld $11e4
$1632 19         dad d
$1633 d1         pop d
$1634 7c         mov a,h
$1635 ba         cmp d
$1636 d2 3a 16   jnc $163a
$1639 62         mov h,d
$163a 7d         mov a,l
$163b bb         cmp e
$163c d2 40 16   jnc $1640
$163f 6b         mov l,e
$1640 d1         pop d
$1641 7c         mov a,h
$1642 92         sub d
$1643 47         mov b,a
$1644 7d         mov a,l
$1645 93         sub e
$1646 4f         mov c,a
$1647 c3 c4 08   jmp $08c4
$164a 2a de 11   lhld $11de
$164d eb         xchg
$164e 2a e2 11   lhld $11e2
$1651 e5         push h
$1652 d5         push d
$1653 3e e0      mvi a,$e0
$1655 82         add d
$1656 57         mov d,a
$1657 3e 43      mvi a,$43
$1659 32 2f 01   sta $012f
$165c d3 10      out $10
$165e cd f3 20   call $20f3
$1661 3e 00      mvi a,$00
$1663 32 2f 01   sta $012f
$1666 d3 10      out $10
$1668 d1         pop d
$1669 e1         pop h
$166a c2 2a 0d   jnz $0d2a
$166d 3e fa      mvi a,$fa
$166f 32 2f 01   sta $012f
$1672 d3 10      out $10
$1674 cd 04 80   call $8004
$1677 af         xra a
$1678 32 2f 01   sta $012f
$167b d3 10      out $10
$167d c9         ret
$167e cd 68 1a   call $1a68
$1681 36 16      mvi m,$16
$1683 2b         dcx h
$1684 36 e1      mvi m,$e1
$1686 11 02 00   lxi d,$0002
$1689 19         dad d
$168a 36 e2      mvi m,$e2
$168c 23         inx h
$168d 36 17      mvi m,$17
$168f 23         inx h
$1690 36 db      mvi m,$db
$1692 23         inx h
$1693 36 17      mvi m,$17
$1695 23         inx h
$1696 36 00      mvi m,$00
$1698 23         inx h
$1699 36 01      mvi m,$01
$169b 11 04 00   lxi d,$0004
$169e 19         dad d
$169f 36 77      mvi m,$77
$16a1 23         inx h
$16a2 36 25      mvi m,$25
$16a4 11 10 00   lxi d,$0010
$16a7 19         dad d
$16a8 16 00      mvi d,$00
$16aa 72         mov m,d
$16ab 2b         dcx h
$16ac 72         mov m,d
$16ad 2b         dcx h
$16ae 36 01      mvi m,$01
$16b0 2b         dcx h
$16b1 36 00      mvi m,$00
$16b3 2b         dcx h
$16b4 79         mov a,c
$16b5 e6 f0      ani $f0
$16b7 77         mov m,a
$16b8 5f         mov e,a
$16b9 2b         dcx h
$16ba 72         mov m,d
$16bb 2b         dcx h
$16bc 79         mov a,c
$16bd e6 0f      ani $0f
$16bf 07         rlc
$16c0 07         rlc
$16c1 07         rlc
$16c2 07         rlc
$16c3 77         mov m,a
$16c4 2b         dcx h
$16c5 72         mov m,d
$16c6 2b         dcx h
$16c7 72         mov m,d
$16c8 2b         dcx h
$16c9 36 05      mvi m,$05
$16cb 2b         dcx h
$16cc 72         mov m,d
$16cd 2b         dcx h
$16ce 36 05      mvi m,$05
$16d0 2b         dcx h
$16d1 0f         rrc
$16d2 0f         rrc
$16d3 0f         rrc
$16d4 e6 1f      ani $1f
$16d6 c6 a0      adi $a0
$16d8 77         mov m,a
$16d9 2b         dcx h
$16da 73         mov m,e
$16db 2b         dcx h
$16dc 77         mov m,a
$16dd 2b         dcx h
$16de 73         mov m,e
$16df af         xra a
$16e0 c9         ret
$16e1 42         mov b,d
$16e2 4b         mov c,e
$16e3 eb         xchg
$16e4 22 76 17   shld $1776
$16e7 3a 32 01   lda $0132
$16ea e6 03      ani $03
$16ec c2 01 17   jnz $1701
$16ef c5         push b
$16f0 21 0b 00   lxi h,$000b
$16f3 09         dad b
$16f4 5e         mov e,m
$16f5 23         inx h
$16f6 56         mov d,m
$16f7 eb         xchg
$16f8 4e         mov c,m
$16f9 23         inx h
$16fa 46         mov b,m
$16fb 09         dad b
$16fc eb         xchg
$16fd 72         mov m,d
$16fe 2b         dcx h
$16ff 73         mov m,e
$1700 c1         pop b
$1701 21 15 00   lxi h,$0015
$1704 09         dad b
$1705 22 45 17   shld $1745
$1708 4e         mov c,m
$1709 23         inx h
$170a 46         mov b,m
$170b 23         inx h
$170c 22 4b 17   shld $174b
$170f 5e         mov e,m
$1710 23         inx h
$1711 56         mov d,m
$1712 23         inx h
$1713 d5         push d
$1714 5e         mov e,m
$1715 23         inx h
$1716 56         mov d,m
$1717 23         inx h
$1718 eb         xchg
$1719 09         dad b
$171a 7c         mov a,h
$171b 22 34 01   shld $0134
$171e eb         xchg
$171f 5e         mov e,m
$1720 23         inx h
$1721 56         mov d,m
$1722 eb         xchg
$1723 c1         pop b
$1724 09         dad b
$1725 22 36 01   shld $0136
$1728 57         mov d,a
$1729 5c         mov e,h
$172a 01 09 0e   lxi b,$0e09
$172d 3e 43      mvi a,$43
$172f 32 2f 01   sta $012f
$1732 d3 10      out $10
$1734 cd 05 21   call $2105
$1737 3e 00      mvi a,$00
$1739 32 2f 01   sta $012f
$173c d3 10      out $10
$173e c2 75 17   jnz $1775
$1741 2a 34 01   lhld $0134
$1744 22 00 00   shld $0000
$1747 2a 36 01   lhld $0136
$174a 22 00 00   shld $0000
$174d 2a 45 17   lhld $1745
$1750 23         inx h
$1751 4e         mov c,m
$1752 3a e7 11   lda $11e7
$1755 47         mov b,a
$1756 c6 0e      adi $0e
$1758 b9         cmp c
$1759 d8         rc
$175a 3e 0e      mvi a,$0e
$175c 81         add c
$175d b8         cmp b
$175e d8         rc
$175f 23         inx h
$1760 23         inx h
$1761 4e         mov c,m
$1762 3a e9 11   lda $11e9
$1765 47         mov b,a
$1766 c6 0a      adi $0a
$1768 b9         cmp c
$1769 d8         rc
$176a 3e 09      mvi a,$09
$176c 81         add c
$176d b8         cmp b
$176e d8         rc
$176f 0e 01      mvi c,$01
$1771 cd d8 15   call $15d8
$1774 c9         ret
$1775 01 00 00   lxi b,$0000
$1778 cd 38 01   call $0138
$177b 21 19 00   lxi h,$0019
$177e 09         dad b
$177f fe 40      cpi $40
$1781 da b7 17   jc $17b7
$1784 fe 80      cpi $80
$1786 da a8 17   jc $17a8
$1789 fe c0      cpi $c0
$178b da 9b 17   jc $179b
$178e af         xra a
$178f 77         mov m,a
$1790 23         inx h
$1791 77         mov m,a
$1792 23         inx h
$1793 36 00      mvi m,$00
$1795 23         inx h
$1796 36 ff      mvi m,$ff
$1798 c3 c3 17   jmp $17c3
$179b af         xra a
$179c 77         mov m,a
$179d 23         inx h
$179e 77         mov m,a
$179f 23         inx h
$17a0 36 00      mvi m,$00
$17a2 23         inx h
$17a3 36 01      mvi m,$01
$17a5 c3 c3 17   jmp $17c3
$17a8 af         xra a
$17a9 36 00      mvi m,$00
$17ab 23         inx h
$17ac 36 ff      mvi m,$ff
$17ae 23         inx h
$17af 77         mov m,a
$17b0 23         inx h
$17b1 77         mov m,a
$17b2 3e ff      mvi a,$ff
$17b4 c3 c3 17   jmp $17c3
$17b7 af         xra a
$17b8 36 00      mvi m,$00
$17ba 23         inx h
$17bb 36 01      mvi m,$01
$17bd 23         inx h
$17be 77         mov m,a
$17bf 23         inx h
$17c0 77         mov m,a
$17c1 3e 01      mvi a,$01
$17c3 b7         ora a
$17c4 ca d1 17   jz $17d1
$17c7 21 0b 00   lxi h,$000b
$17ca 09         dad b
$17cb 36 9f      mvi m,$9f
$17cd 23         inx h
$17ce 36 25      mvi m,$25
$17d0 c9         ret
$17d1 21 0b 00   lxi h,$000b
$17d4 09         dad b
$17d5 36 77      mvi m,$77
$17d7 23         inx h
$17d8 36 25      mvi m,$25
$17da c9         ret
$17db 21 fc ff   lxi h,$fffc
$17de 19         dad d
$17df c3 8f 1a   jmp $1a8f
$17e2 21 14 00   lxi h,$0014
$17e5 19         dad d
$17e6 cd b1 08   call $08b1
$17e9 79         mov a,c
$17ea 01 f3 ff   lxi b,$fff3
$17ed 09         dad b
$17ee 46         mov b,m
$17ef 23         inx h
$17f0 e5         push h
$17f1 66         mov h,m
$17f2 68         mov l,b
$17f3 4f         mov c,a
$17f4 cd 96 08   call $0896
$17f7 3e f2      mvi a,$f2
$17f9 32 2f 01   sta $012f
$17fc d3 10      out $10
$17fe cd 83 81   call $8183
$1801 af         xra a
$1802 32 2f 01   sta $012f
$1805 d3 10      out $10
$1807 e1         pop h
$1808 23         inx h
$1809 71         mov m,c
$180a 23         inx h
$180b 70         mov m,b
$180c 01 03 00   lxi b,$0003
$180f 09         dad b
$1810 73         mov m,e
$1811 23         inx h
$1812 72         mov m,d
$1813 c9         ret

$1814 7e 16 18 18 00 00 00 00   ~.......
$181c 00 00 00 00 00 00 00 00   ........
$1824 00 00 00 00 00 00 00 00   ........
$182c 00 00 00 00 00 00 00 00   ........
$1834 00 00 00 00 00 00 00 00   ........
$183c 00 00 00 00 00 00 00 00   ........
$1844 00 00 00 00 00 00 00 00   ........
$184c 00 00 00 00 00 00 00 00   ........
$1854 00 00 00 00 00 00 00 00   ........
$185c 00 00 00 00 00 00 00 00   ........
$1864 00 00 00 00 00 00 00 00   ........
$186c 00 00 00 00 00 00 00 00   ........
$1874 00 00 00 00 00 00 00 00   ........
$187c 00 00 00 00 00 00 00 00   ........
$1884 00 00 00 00 00 00 00 00   ........
$188c 00 00 00 00 00 00 00 00   ........
$1894 00 00 00 00 00 00 00 00   ........
$189c 00 00 00 00 00 00 00 00   ........
$18a4 00 00 00 00 00 00 00 00   ........
$18ac 00 00 00 00 00 00 00 00   ........
$18b4 00 00 00 00 00 00 00 00   ........
$18bc 00 00 00 00 00 00 00 00   ........
$18c4 00 00 00 00 00 00 00 00   ........
$18cc 00 00 00 00 00 00 00 00   ........
$18d4 00 00 00 00 00 00 00 00   ........
$18dc 00 00 00 00 00 00 00 00   ........
$18e4 00 00 00 00 00 00 00 00   ........
$18ec 00 00 00 00 00 00 00 00   ........
$18f4 00 00 00 00 00 00 00 00   ........
$18fc 00 00 00 00 00 00 00 00   ........
$1904 00 00 00 00 00 00 00 00   ........
$190c 00 00 00 00 00 00 00 00   ........
$1914 00 00 00 00 00 00 00 00   ........
$191c 00 00 00 00 00 00 00 00   ........
$1924 00 00 00 00 00 00 00 00   ........
$192c 00 00 00 00 00 00 00 00   ........
$1934 00 00 00 00 00 00 00 00   ........
$193c 00 00 00 00 00 00 00 00   ........
$1944 00 00 00 00 00 00 00 00   ........
$194c 00 00 00 00 00 00 00 00   ........
$1954 00 00 00 00 00 00 00 00   ........
$195c 00 00 00 00 00 00 00 00   ........
$1964 00 00 00 00 00 00 00 00   ........
$196c 00 00 00 00 00 00 00 00   ........
$1974 00 00 00 00 00 00 00 00   ........
$197c 00 00 00 00 00 00 00 00   ........
$1984 00 00 00 00 00 00 00 00   ........
$198c 00 00 00 00 00 00 00 00   ........
$1994 00 00 00 00 00 00 00 00   ........
$199c 00 00 00 00 00 00 00 00   ........
$19a4 00 00 00 00 00 00 00 00   ........
$19ac 00 00 00 00 00 00 00 00   ........
$19b4 00 00 00 00 00 00 00 00   ........
$19bc 00 00 00 00 00 00 00 00   ........
$19c4 00 00 00 00 00 00 00 00   ........
$19cc 00 00 00 00 00 00 00 00   ........
$19d4 00 00 00 00 00 00 00 00   ........
$19dc 00 00 00 00 00 00 00 00   ........
$19e4 00 00 00 00 00 00 00 00   ........
$19ec 00 00 00 00 00 00 00 00   ........
$19f4 00 00 00 00 00 00 00 00   ........
$19fc 00 00 00 00 00 00 00 00   ........
$1a04 00 00 00 00 ff            ....ÿ

$1a09 3e fe      mvi a,$fe
$1a0b 32 19 18   sta $1819
$1a0e c9         ret
$1a0f 32 3f 1a   sta $1a3f
$1a12 79         mov a,c
$1a13 32 52 1a   sta $1a52
$1a16 7c         mov a,h
$1a17 32 3c 1a   sta $1a3c
$1a1a 7d         mov a,l
$1a1b 32 4f 1a   sta $1a4f
$1a1e eb         xchg
$1a1f 7e         mov a,m
$1a20 fe fc      cpi $fc
$1a22 da 2b 1a   jc $1a2b
$1a25 fe fe      cpi $fe
$1a27 da 61 1a   jc $1a61
$1a2a c9         ret
$1a2b e5         push h
$1a2c 01 05 00   lxi b,$0005
$1a2f 09         dad b
$1a30 7e         mov a,m
$1a31 fe 01      cpi $01
$1a33 ca 60 1a   jz $1a60
$1a36 01 10 00   lxi b,$0010
$1a39 09         dad b
$1a3a 4e         mov c,m
$1a3b 3e 00      mvi a,$00
$1a3d 47         mov b,a
$1a3e c6 00      adi $00
$1a40 b9         cmp c
$1a41 da 60 1a   jc $1a60
$1a44 3e 0e      mvi a,$0e
$1a46 81         add c
$1a47 b8         cmp b
$1a48 da 60 1a   jc $1a60
$1a4b 23         inx h
$1a4c 23         inx h
$1a4d 4e         mov c,m
$1a4e 3e 00      mvi a,$00
$1a50 47         mov b,a
$1a51 c6 00      adi $00
$1a53 b9         cmp c
$1a54 da 60 1a   jc $1a60
$1a57 3e 09      mvi a,$09
$1a59 81         add c
$1a5a b8         cmp b
$1a5b da 60 1a   jc $1a60
$1a5e e1         pop h
$1a5f c9         ret
$1a60 e1         pop h
$1a61 01 21 00   lxi b,$0021
$1a64 09         dad b
$1a65 c3 1f 1a   jmp $1a1f
$1a68 21 19 18   lxi h,$1819
$1a6b 7e         mov a,m
$1a6c fe fd      cpi $fd
$1a6e c8         rz
$1a6f da 88 1a   jc $1a88
$1a72 fe fe      cpi $fe
$1a74 c2 86 1a   jnz $1a86
$1a77 eb         xchg
$1a78 21 21 00   lxi h,$0021
$1a7b 19         dad d
$1a7c 3e ff      mvi a,$ff
$1a7e be         cmp m
$1a7f eb         xchg
$1a80 c8         rz
$1a81 eb         xchg
$1a82 36 fe      mvi m,$fe
$1a84 eb         xchg
$1a85 c9         ret
$1a86 f1         pop psw
$1a87 c9         ret
$1a88 11 21 00   lxi d,$0021
$1a8b 19         dad d
$1a8c c3 6b 1a   jmp $1a6b
$1a8f 36 fc      mvi m,$fc
$1a91 c9         ret
$1a92 36 fd      mvi m,$fd
$1a94 c9         ret
$1a95 22 ad 1a   shld $1aad
$1a98 21 19 18   lxi h,$1819
$1a9b 7e         mov a,m
$1a9c fe fc      cpi $fc
$1a9e da a7 1a   jc $1aa7
$1aa1 fe fe      cpi $fe
$1aa3 da b6 1a   jc $1ab6
$1aa6 c9         ret
$1aa7 e5         push h
$1aa8 11 b5 1a   lxi d,$1ab5
$1aab d5         push d
$1aac 11 00 00   lxi d,$0000
$1aaf 19         dad d
$1ab0 56         mov d,m
$1ab1 2b         dcx h
$1ab2 5e         mov e,m
$1ab3 eb         xchg
$1ab4 e9         pchl
$1ab5 e1         pop h
$1ab6 11 21 00   lxi d,$0021
$1ab9 19         dad d
$1aba c3 9b 1a   jmp $1a9b
$1abd c9         ret
$1abe 22 d0 1a   shld $1ad0
$1ac1 21 19 18   lxi h,$1819
$1ac4 7e         mov a,m
$1ac5 fe fd      cpi $fd
$1ac7 da ce 1a   jc $1ace
$1aca ca d3 1a   jz $1ad3
$1acd c9         ret
$1ace e5         push h
$1acf cd 00 00   call $0000
$1ad2 e1         pop h
$1ad3 11 21 00   lxi d,$0021
$1ad6 19         dad d
$1ad7 c3 c4 1a   jmp $1ac4
$1ada c9         ret
$1adb 21 00 00   lxi h,$0000
$1ade c3 95 1a   jmp $1a95
$1ae1 21 02 00   lxi h,$0002
$1ae4 c3 95 1a   jmp $1a95
$1ae7 21 f3 1a   lxi h,$1af3
$1aea c3 be 1a   jmp $1abe
$1aed 21 47 1b   lxi h,$1b47
$1af0 c3 be 1a   jmp $1abe
$1af3 11 07 00   lxi d,$0007
$1af6 19         dad d
$1af7 7e         mov a,m
$1af8 fe ff      cpi $ff
$1afa c8         rz
$1afb 01 05 00   lxi b,$0005
$1afe 09         dad b
$1aff 4e         mov c,m
$1b00 23         inx h
$1b01 46         mov b,m
$1b02 23         inx h
$1b03 5e         mov e,m
$1b04 23         inx h
$1b05 56         mov d,m
$1b06 eb         xchg
$1b07 22 2e 1b   shld $1b2e
$1b0a eb         xchg
$1b0b 70         mov m,b
$1b0c 2b         dcx h
$1b0d 71         mov m,c
$1b0e 7a         mov a,d
$1b0f b8         cmp b
$1b10 da 14 1b   jc $1b14
$1b13 50         mov d,b
$1b14 7b         mov a,e
$1b15 b9         cmp c
$1b16 da 1a 1b   jc $1b1a
$1b19 59         mov e,c
$1b1a d5         push d
$1b1b 23         inx h
$1b1c 23         inx h
$1b1d 50         mov d,b
$1b1e 59         mov e,c
$1b1f 4e         mov c,m
$1b20 23         inx h
$1b21 46         mov b,m
$1b22 23         inx h
$1b23 eb         xchg
$1b24 09         dad b
$1b25 eb         xchg
$1b26 7e         mov a,m
$1b27 71         mov m,c
$1b28 4f         mov c,a
$1b29 23         inx h
$1b2a 7e         mov a,m
$1b2b 70         mov m,b
$1b2c 47         mov b,a
$1b2d 21 00 00   lxi h,$0000
$1b30 09         dad b
$1b31 7c         mov a,h
$1b32 ba         cmp d
$1b33 d2 37 1b   jnc $1b37
$1b36 62         mov h,d
$1b37 7d         mov a,l
$1b38 bb         cmp e
$1b39 d2 3d 1b   jnc $1b3d
$1b3c 6b         mov l,e
$1b3d d1         pop d
$1b3e 7c         mov a,h
$1b3f 92         sub d
$1b40 47         mov b,a
$1b41 7d         mov a,l
$1b42 93         sub e
$1b43 4f         mov c,a
$1b44 c3 c4 08   jmp $08c4
$1b47 fe fc      cpi $fc
$1b49 ca 92 1a   jz $1a92
$1b4c 11 07 00   lxi d,$0007
$1b4f 19         dad d
$1b50 7e         mov a,m
$1b51 fe ff      cpi $ff
$1b53 c8         rz
$1b54 11 05 00   lxi d,$0005
$1b57 19         dad d
$1b58 5e         mov e,m
$1b59 23         inx h
$1b5a 56         mov d,m
$1b5b 01 03 00   lxi b,$0003
$1b5e 09         dad b
$1b5f 7e         mov a,m
$1b60 23         inx h
$1b61 66         mov h,m
$1b62 6f         mov l,a
$1b63 e5         push h
$1b64 d5         push d
$1b65 3e e0      mvi a,$e0
$1b67 82         add d
$1b68 57         mov d,a
$1b69 3e 43      mvi a,$43
$1b6b 32 2f 01   sta $012f
$1b6e d3 10      out $10
$1b70 cd f3 20   call $20f3
$1b73 3e 00      mvi a,$00
$1b75 32 2f 01   sta $012f
$1b78 d3 10      out $10
$1b7a d1         pop d
$1b7b e1         pop h
$1b7c c2 2a 0d   jnz $0d2a
$1b7f 3e fa      mvi a,$fa
$1b81 32 2f 01   sta $012f
$1b84 d3 10      out $10
$1b86 cd 04 80   call $8004
$1b89 af         xra a
$1b8a 32 2f 01   sta $012f
$1b8d d3 10      out $10
$1b8f c9         ret

$1b90 7e 16 94 1b 00 00 00 00   ~......
$1b98 00 00 00 00 00 00 00 00   ........
$1ba0 00 00 00 00 00 00 00 00   ........
$1ba8 00 00 00 00 00 00 00 00   ........
$1bb0 00 00 00 00 00 00 00 00   ........
$1bb8 00 00 00 00 00 00 00 00   ........
$1bc0 00 00 00 00 00 00 00 00   ........
$1bc8 00 00 00 00 00 00 00 00   ........
$1bd0 00 00 00 00 00 00 00 00   ........
$1bd8 00 00 00 00 00 00 00 00   ........
$1be0 00 00 00 00 00 00 00 00   ........
$1be8 00 00 00 00 00 00 00 00   ........
$1bf0 00 00 00 00 00 00 00 00   ........
$1bf8 00 00 00 00 00 00 00 00   ........
$1c00 00 00 00 00 00 00 00 00   ........
$1c08 00 00 00 00 00 00 00 00   ........
$1c10 00 00 00 00 00 00 00 00   ........
$1c18 00 00 00 00 00 00 00 00   ........
$1c20 00 00 00 00 00 00 00 00   ........
$1c28 00 00 00 00 00 00 00 00   ........
$1c30 00 00 00 00 00 00 00 00   ........
$1c38 00 00 00 00 00 00 00 00   ........
$1c40 00 00 00 00 00 00 00 00   ........
$1c48 00 00 00 00 00 00 00 00   ........
$1c50 00 00 00 00 00 00 00 00   ........
$1c58 00 00 00 00 00 00 00 00   ........
$1c60 00 00 00 00 00 00 00 00   ........
$1c68 00 00 00 00 00 00 00 00   ........
$1c70 00 00 00 00 00 00 00 00   ........
$1c78 00 00 00 00 00 00 00 00   ........
$1c80 00 00 00 00 00 00 00 00   ........
$1c88 00 00 00 00 00 00 00 00   ........
$1c90 00 00 00 00 00 00 00 00   ........
$1c98 00 00 00 00 00 00 00 00   ........
$1ca0 00 00 00 00 00 00 00 00   ........
$1ca8 00 00 00 00 00 00 00 00   ........
$1cb0 00 00 00 00 00 00 00 00   ........
$1cb8 00 00 00 00 00 00 00 00   ........
$1cc0 00 00 00 00 00 00 00 00   ........
$1cc8 00 00 00 00 00 00 00 00   ........
$1cd0 00 00 00 00 00 00 00 00   ........
$1cd8 00 00 00 00 00 00 00 00   ........
$1ce0 00 00 00 00 00 00 00 00   ........
$1ce8 00 00 00 00 00 00 00 00   ........
$1cf0 00 00 00 00 00 00 00 00   ........
$1cf8 00 00 00 00 00 00 00 00   ........
$1d00 00 00 00 00 00 00 00 00   ........
$1d08 00 00 00 00 ff            ....ÿ

$1d0d cd 07 1e   call $1e07
$1d10 2b         dcx h
$1d11 36 4b      mvi m,$4b
$1d13 23         inx h
$1d14 36 1d      mvi m,$1d
$1d16 23         inx h
$1d17 36 c7      mvi m,$c7
$1d19 23         inx h
$1d1a 36 1d      mvi m,$1d
$1d1c 23         inx h
$1d1d 36 ff      mvi m,$ff
$1d1f 23         inx h
$1d20 36 06      mvi m,$06
$1d22 06 00      mvi b,$00
$1d24 11 0f 00   lxi d,$000f
$1d27 19         dad d
$1d28 3a e9 11   lda $11e9
$1d2b 4f         mov c,a
$1d2c 77         mov m,a
$1d2d 2b         dcx h
$1d2e 70         mov m,b
$1d2f 2b         dcx h
$1d30 3a e7 11   lda $11e7
$1d33 77         mov m,a
$1d34 2b         dcx h
$1d35 70         mov m,b
$1d36 2b         dcx h
$1d37 70         mov m,b
$1d38 2b         dcx h
$1d39 36 05      mvi m,$05
$1d3b 11 fd ff   lxi d,$fffd
$1d3e 19         dad d
$1d3f 0f         rrc
$1d40 0f         rrc
$1d41 0f         rrc
$1d42 e6 1f      ani $1f
$1d44 c6 a0      adi $a0
$1d46 77         mov m,a
$1d47 2b         dcx h
$1d48 71         mov m,c
$1d49 af         xra a
$1d4a c9         ret
$1d4b 21 04 00   lxi h,$0004
$1d4e 19         dad d
$1d4f 7e         mov a,m
$1d50 fe ff      cpi $ff
$1d52 ca 77 1d   jz $1d77
$1d55 23         inx h
$1d56 35         dcr m
$1d57 ca 70 1d   jz $1d70
$1d5a 23         inx h
$1d5b 7e         mov a,m
$1d5c c6 32      adi $32
$1d5e 77         mov m,a
$1d5f d2 6f 1d   jnc $1d6f
$1d62 23         inx h
$1d63 5e         mov e,m
$1d64 23         inx h
$1d65 56         mov d,m
$1d66 eb         xchg
$1d67 4e         mov c,m
$1d68 23         inx h
$1d69 46         mov b,m
$1d6a 09         dad b
$1d6b eb         xchg
$1d6c 72         mov m,d
$1d6d 2b         dcx h
$1d6e 73         mov m,e
$1d6f c9         ret
$1d70 11 fc ff   lxi d,$fffc
$1d73 19         dad d
$1d74 c3 2e 1e   jmp $1e2e
$1d77 23         inx h
$1d78 35         dcr m
$1d79 c0         rnz
$1d7a 36 08      mvi m,$08
$1d7c 2b         dcx h
$1d7d 36 00      mvi m,$00
$1d7f 23         inx h
$1d80 23         inx h
$1d81 36 00      mvi m,$00
$1d83 23         inx h
$1d84 3a dd 11   lda $11dd
$1d87 b7         ora a
$1d88 ca 9f 1d   jz $1d9f
$1d8b 36 5d      mvi m,$5d
$1d8d 23         inx h
$1d8e 36 26      mvi m,$26
$1d90 01 0a 00   lxi b,$000a
$1d93 09         dad b
$1d94 56         mov d,m
$1d95 23         inx h
$1d96 23         inx h
$1d97 5e         mov e,m
$1d98 21 00 08   lxi h,$0800
$1d9b 19         dad d
$1d9c c3 b0 1d   jmp $1db0
$1d9f 36 81      mvi m,$81
$1da1 23         inx h
$1da2 36 26      mvi m,$26
$1da4 01 0a 00   lxi b,$000a
$1da7 09         dad b
$1da8 56         mov d,m
$1da9 23         inx h
$1daa 23         inx h
$1dab 5e         mov e,m
$1dac 21 00 fd   lxi h,$fd00
$1daf 19         dad d
$1db0 3e 0a      mvi a,$0a
$1db2 0e 0f      mvi c,$0f
$1db4 11 19 18   lxi d,$1819
$1db7 cd 0f 1a   call $1a0f
$1dba 3e fd      mvi a,$fd
$1dbc be         cmp m
$1dbd d8         rc
$1dbe 01 03 00   lxi b,$0003
$1dc1 09         dad b
$1dc2 5e         mov e,m
$1dc3 23         inx h
$1dc4 56         mov d,m
$1dc5 eb         xchg
$1dc6 e9         pchl
$1dc7 21 02 00   lxi h,$0002
$1dca 19         dad d
$1dcb 7e         mov a,m
$1dcc fe ff      cpi $ff
$1dce c8         rz
$1dcf 11 0e 00   lxi d,$000e
$1dd2 19         dad d
$1dd3 cd 9d 08   call $089d
$1dd6 79         mov a,c
$1dd7 01 f3 ff   lxi b,$fff3
$1dda 09         dad b
$1ddb 46         mov b,m
$1ddc 23         inx h
$1ddd e5         push h
$1dde 66         mov h,m
$1ddf 68         mov l,b
$1de0 4f         mov c,a
$1de1 cd 96 08   call $0896
$1de4 3e f2      mvi a,$f2
$1de6 32 2f 01   sta $012f
$1de9 d3 10      out $10
$1deb cd 83 81   call $8183
$1dee af         xra a
$1def 32 2f 01   sta $012f
$1df2 d3 10      out $10
$1df4 e1         pop h
$1df5 23         inx h
$1df6 71         mov m,c
$1df7 23         inx h
$1df8 70         mov m,b
$1df9 01 03 00   lxi b,$0003
$1dfc 09         dad b
$1dfd 73         mov m,e
$1dfe 23         inx h
$1dff 72         mov m,d
$1e00 c9         ret
$1e01 3e fe      mvi a,$fe
$1e03 32 95 1b   sta $1b95
$1e06 c9         ret
$1e07 21 95 1b   lxi h,$1b95
$1e0a 7e         mov a,m
$1e0b fe fd      cpi $fd
$1e0d c8         rz
$1e0e da 27 1e   jc $1e27
$1e11 fe fe      cpi $fe
$1e13 c2 25 1e   jnz $1e25
$1e16 eb         xchg
$1e17 21 19 00   lxi h,$0019
$1e1a 19         dad d
$1e1b 3e ff      mvi a,$ff
$1e1d be         cmp m
$1e1e eb         xchg
$1e1f c8         rz
$1e20 eb         xchg
$1e21 36 fe      mvi m,$fe
$1e23 eb         xchg
$1e24 c9         ret
$1e25 f1         pop psw
$1e26 c9         ret
$1e27 11 19 00   lxi d,$0019
$1e2a 19         dad d
$1e2b c3 0a 1e   jmp $1e0a
$1e2e 36 fc      mvi m,$fc
$1e30 c9         ret
$1e31 36 fd      mvi m,$fd
$1e33 c9         ret
$1e34 22 4c 1e   shld $1e4c
$1e37 21 95 1b   lxi h,$1b95
$1e3a 7e         mov a,m
$1e3b fe fc      cpi $fc
$1e3d da 46 1e   jc $1e46
$1e40 fe fe      cpi $fe
$1e42 da 55 1e   jc $1e55
$1e45 c9         ret
$1e46 e5         push h
$1e47 11 54 1e   lxi d,$1e54
$1e4a d5         push d
$1e4b 11 00 00   lxi d,$0000
$1e4e 19         dad d
$1e4f 56         mov d,m
$1e50 2b         dcx h
$1e51 5e         mov e,m
$1e52 eb         xchg
$1e53 e9         pchl
$1e54 e1         pop h
$1e55 11 19 00   lxi d,$0019
$1e58 19         dad d
$1e59 c3 3a 1e   jmp $1e3a
$1e5c c9         ret
$1e5d 22 6f 1e   shld $1e6f
$1e60 21 95 1b   lxi h,$1b95
$1e63 7e         mov a,m
$1e64 fe fd      cpi $fd
$1e66 da 6d 1e   jc $1e6d
$1e69 ca 72 1e   jz $1e72
$1e6c c9         ret
$1e6d e5         push h
$1e6e cd 00 00   call $0000
$1e71 e1         pop h
$1e72 11 19 00   lxi d,$0019
$1e75 19         dad d
$1e76 c3 63 1e   jmp $1e63
$1e79 c9         ret
$1e7a 21 00 00   lxi h,$0000
$1e7d c3 34 1e   jmp $1e34
$1e80 21 02 00   lxi h,$0002
$1e83 c3 34 1e   jmp $1e34
$1e86 21 92 1e   lxi h,$1e92
$1e89 c3 5d 1e   jmp $1e5d
$1e8c 21 e6 1e   lxi h,$1ee6
$1e8f c3 5d 1e   jmp $1e5d
$1e92 11 03 00   lxi d,$0003
$1e95 19         dad d
$1e96 7e         mov a,m
$1e97 fe ff      cpi $ff
$1e99 c8         rz
$1e9a 01 05 00   lxi b,$0005
$1e9d 09         dad b
$1e9e 4e         mov c,m
$1e9f 23         inx h
$1ea0 46         mov b,m
$1ea1 23         inx h
$1ea2 5e         mov e,m
$1ea3 23         inx h
$1ea4 56         mov d,m
$1ea5 eb         xchg
$1ea6 22 cd 1e   shld $1ecd
$1ea9 eb         xchg
$1eaa 70         mov m,b
$1eab 2b         dcx h
$1eac 71         mov m,c
$1ead 7a         mov a,d
$1eae b8         cmp b
$1eaf da b3 1e   jc $1eb3
$1eb2 50         mov d,b
$1eb3 7b         mov a,e
$1eb4 b9         cmp c
$1eb5 da b9 1e   jc $1eb9
$1eb8 59         mov e,c
$1eb9 d5         push d
$1eba 23         inx h
$1ebb 23         inx h
$1ebc 50         mov d,b
$1ebd 59         mov e,c
$1ebe 4e         mov c,m
$1ebf 23         inx h
$1ec0 46         mov b,m
$1ec1 23         inx h
$1ec2 eb         xchg
$1ec3 09         dad b
$1ec4 eb         xchg
$1ec5 7e         mov a,m
$1ec6 71         mov m,c
$1ec7 4f         mov c,a
$1ec8 23         inx h
$1ec9 7e         mov a,m
$1eca 70         mov m,b
$1ecb 47         mov b,a
$1ecc 21 00 00   lxi h,$0000
$1ecf 09         dad b
$1ed0 7c         mov a,h
$1ed1 ba         cmp d
$1ed2 d2 d6 1e   jnc $1ed6
$1ed5 62         mov h,d
$1ed6 7d         mov a,l
$1ed7 bb         cmp e
$1ed8 d2 dc 1e   jnc $1edc
$1edb 6b         mov l,e
$1edc d1         pop d
$1edd 7c         mov a,h
$1ede 92         sub d
$1edf 47         mov b,a
$1ee0 7d         mov a,l
$1ee1 93         sub e
$1ee2 4f         mov c,a
$1ee3 c3 c4 08   jmp $08c4
$1ee6 fe fc      cpi $fc
$1ee8 ca 31 1e   jz $1e31
$1eeb 11 03 00   lxi d,$0003
$1eee 19         dad d
$1eef 7e         mov a,m
$1ef0 fe ff      cpi $ff
$1ef2 c8         rz
$1ef3 11 05 00   lxi d,$0005
$1ef6 19         dad d
$1ef7 5e         mov e,m
$1ef8 23         inx h
$1ef9 56         mov d,m
$1efa 01 03 00   lxi b,$0003
$1efd 09         dad b
$1efe 7e         mov a,m
$1eff 23         inx h
$1f00 66         mov h,m
$1f01 6f         mov l,a
$1f02 e5         push h
$1f03 d5         push d
$1f04 3e e0      mvi a,$e0
$1f06 82         add d
$1f07 57         mov d,a
$1f08 3e 43      mvi a,$43
$1f0a 32 2f 01   sta $012f
$1f0d d3 10      out $10
$1f0f cd f3 20   call $20f3
$1f12 3e 00      mvi a,$00
$1f14 32 2f 01   sta $012f
$1f17 d3 10      out $10
$1f19 d1         pop d
$1f1a e1         pop h
$1f1b c2 2a 0d   jnz $0d2a
$1f1e 3e fa      mvi a,$fa
$1f20 32 2f 01   sta $012f
$1f23 d3 10      out $10
$1f25 cd 04 80   call $8004
$1f28 af         xra a
$1f29 32 2f 01   sta $012f
$1f2c d3 10      out $10
$1f2e c9         ret
$1f2f af         xra a
$1f30 32 ff 04   sta $04ff
$1f33 c9         ret
$1f34 11 00 80   lxi d,$8000
$1f37 3e 10      mvi a,$10
$1f39 cd 55 02   call $0255
$1f3c 3e 01      mvi a,$01
$1f3e 32 2c 01   sta $012c
$1f41 af         xra a
$1f42 32 00 05   sta $0500
$1f45 11 12 80   lxi d,$8012
$1f48 3e 10      mvi a,$10
$1f4a cd 8e 02   call $028e
$1f4d cd 38 12   call $1238
$1f50 cd 1e 12   call $121e
$1f53 c9         ret
$1f54 3a e1 07   lda $07e1
$1f57 b7         ora a
$1f58 c8         rz
$1f59 fe 01      cpi $01
$1f5b c2 70 1f   jnz $1f70
$1f5e cd 71 1f   call $1f71
$1f61 cd 39 20   call $2039
$1f64 cd 1e 12   call $121e
$1f67 af         xra a
$1f68 3a 2e 01   lda $012e
$1f6b af         xra a
$1f6c 32 e1 07   sta $07e1
$1f6f c9         ret
$1f70 c9         ret
$1f71 cd 09 1a   call $1a09
$1f74 cd 01 1e   call $1e01
$1f77 cd 94 1f   call $1f94
$1f7a cd dc 1f   call $1fdc
$1f7d 01 00 00   lxi b,$0000
$1f80 11 bf 00   lxi d,$00bf
$1f83 3e 5a      mvi a,$5a
$1f85 32 2f 01   sta $012f
$1f88 d3 10      out $10
$1f8a cd cd 82   call $82cd
$1f8d af         xra a
$1f8e 32 2f 01   sta $012f
$1f91 d3 10      out $10
$1f93 c9         ret
$1f94 3a 00 05   lda $0500
$1f97 07         rlc
$1f98 07         rlc
$1f99 4f         mov c,a
$1f9a 06 00      mvi b,$00
$1f9c 21 16 80   lxi h,$8016
$1f9f 09         dad b
$1fa0 eb         xchg
$1fa1 3e 10      mvi a,$10
$1fa3 cd 8e 02   call $028e
$1fa6 50         mov d,b
$1fa7 59         mov e,c
$1fa8 01 f1 06   lxi b,$06f1
$1fab 21 78 10   lxi h,$1078
$1fae cd 3d 03   call $033d
$1fb1 21 f1 06   lxi h,$06f1
$1fb4 01 01 05   lxi b,$0501
$1fb7 3e f0      mvi a,$f0
$1fb9 f5         push psw
$1fba 5e         mov e,m
$1fbb 16 00      mvi d,$00
$1fbd 23         inx h
$1fbe e5         push h
$1fbf eb         xchg
$1fc0 29         dad h
$1fc1 29         dad h
$1fc2 11 22 80   lxi d,$8022
$1fc5 19         dad d
$1fc6 c5         push b
$1fc7 eb         xchg
$1fc8 3e 10      mvi a,$10
$1fca cd 8e 02   call $028e
$1fcd 79         mov a,c
$1fce 58         mov e,b
$1fcf c1         pop b
$1fd0 02         stax b
$1fd1 03         inx b
$1fd2 7b         mov a,e
$1fd3 02         stax b
$1fd4 03         inx b
$1fd5 e1         pop h
$1fd6 f1         pop psw
$1fd7 3d         dcr a
$1fd8 c2 b9 1f   jnz $1fb9
$1fdb c9         ret
$1fdc 3a 00 05   lda $0500
$1fdf 07         rlc
$1fe0 07         rlc
$1fe1 4f         mov c,a
$1fe2 06 00      mvi b,$00
$1fe4 21 16 80   lxi h,$8016
$1fe7 09         dad b
$1fe8 eb         xchg
$1fe9 3e 10      mvi a,$10
$1feb cd 8e 02   call $028e
$1fee 21 f2 00   lxi h,$00f2
$1ff1 09         dad b
$1ff2 eb         xchg
$1ff3 01 f1 06   lxi b,$06f1
$1ff6 21 78 10   lxi h,$1078
$1ff9 cd 3d 03   call $033d
$1ffc 21 f1 06   lxi h,$06f1
$1fff 0e 00      mvi c,$00
$2001 46         mov b,m
$2002 c5         push b
$2003 7e         mov a,m
$2004 e5         push h
$2005 e6 07      ani $07
$2007 07         rlc
$2008 5f         mov e,a
$2009 16 00      mvi d,$00
$200b 7e         mov a,m
$200c 0f         rrc
$200d 0f         rrc
$200e 0f         rrc
$200f e6 1f      ani $1f
$2011 21 e1 06   lxi h,$06e1
$2014 19         dad d
$2015 5e         mov e,m
$2016 23         inx h
$2017 56         mov d,m
$2018 eb         xchg
$2019 11 1e 20   lxi d,$201e
$201c d5         push d
$201d e9         pchl
$201e e1         pop h
$201f c1         pop b
$2020 77         mov m,a
$2021 23         inx h
$2022 0c         inr c
$2023 3e f0      mvi a,$f0
$2025 b9         cmp c
$2026 c2 01 20   jnz $2001
$2029 c9         ret
$202a 78         mov a,b
$202b c9         ret
$202c 21 14 18   lxi h,$1814
$202f 07         rlc
$2030 5f         mov e,a
$2031 16 00      mvi d,$00
$2033 19         dad d
$2034 5e         mov e,m
$2035 23         inx h
$2036 56         mov d,m
$2037 eb         xchg
$2038 e9         pchl
$2039 3e 10      mvi a,$10
$203b 32 2f 01   sta $012f
$203e d3 10      out $10
$2040 cd cf 20   call $20cf
$2043 af         xra a
$2044 32 2f 01   sta $012f
$2047 d3 10      out $10
$2049 11 00 00   lxi d,$0000
$204c 21 00 00   lxi h,$0000
$204f 01 00 03   lxi b,$0300
$2052 3e 18      mvi a,$18
$2054 cd c9 02   call $02c9
$2057 11 00 00   lxi d,$0000
$205a 21 00 00   lxi h,$0000
$205d 01 00 03   lxi b,$0300
$2060 3e 1c      mvi a,$1c
$2062 cd c9 02   call $02c9
$2065 3e e3      mvi a,$e3
$2067 32 2f 01   sta $012f
$206a d3 10      out $10
$206c cd 76 20   call $2076
$206f af         xra a
$2070 32 2f 01   sta $012f
$2073 d3 10      out $10
$2075 c9         ret
$2076 1e 00      mvi e,$00
$2078 21 f1 06   lxi h,$06f1
$207b 16 80      mvi d,$80
$207d 7e         mov a,m
$207e 23         inx h
$207f 12         stax d
$2080 1c         inr e
$2081 12         stax d
$2082 1c         inr e
$2083 12         stax d
$2084 1c         inr e
$2085 12         stax d
$2086 1c         inr e
$2087 12         stax d
$2088 1c         inr e
$2089 12         stax d
$208a 1c         inr e
$208b 12         stax d
$208c 1c         inr e
$208d 12         stax d
$208e 1c         inr e
$208f 12         stax d
$2090 1c         inr e
$2091 12         stax d
$2092 1c         inr e
$2093 12         stax d
$2094 1c         inr e
$2095 12         stax d
$2096 1c         inr e
$2097 12         stax d
$2098 1c         inr e
$2099 12         stax d
$209a 1c         inr e
$209b 12         stax d
$209c 1c         inr e
$209d 12         stax d
$209e 14         inr d
$209f 12         stax d
$20a0 1d         dcr e
$20a1 12         stax d
$20a2 1d         dcr e
$20a3 12         stax d
$20a4 1d         dcr e
$20a5 12         stax d
$20a6 1d         dcr e
$20a7 12         stax d
$20a8 1d         dcr e
$20a9 12         stax d
$20aa 1d         dcr e
$20ab 12         stax d
$20ac 1d         dcr e
$20ad 12         stax d
$20ae 1d         dcr e
$20af 12         stax d
$20b0 1d         dcr e
$20b1 12         stax d
$20b2 1d         dcr e
$20b3 12         stax d
$20b4 1d         dcr e
$20b5 12         stax d
$20b6 1d         dcr e
$20b7 12         stax d
$20b8 1d         dcr e
$20b9 12         stax d
$20ba 1d         dcr e
$20bb 12         stax d
$20bc 1d         dcr e
$20bd 12         stax d
$20be 14         inr d
$20bf 3e a0      mvi a,$a0
$20c1 ba         cmp d
$20c2 c2 7d 20   jnz $207d
$20c5 3e 10      mvi a,$10
$20c7 83         add e
$20c8 5f         mov e,a
$20c9 fe f0      cpi $f0
$20cb da 7b 20   jc $207b
$20ce c9         ret
$20cf 1e 00      mvi e,$00
$20d1 21 01 05   lxi h,$0501
$20d4 16 80      mvi d,$80
$20d6 4e         mov c,m
$20d7 23         inx h
$20d8 46         mov b,m
$20d9 23         inx h
$20da d5         push d
$20db e5         push h
$20dc cd e2 07   call $07e2
$20df e1         pop h
$20e0 d1         pop d
$20e1 14         inr d
$20e2 14         inr d
$20e3 3e a0      mvi a,$a0
$20e5 ba         cmp d
$20e6 c2 d6 20   jnz $20d6
$20e9 3e 10      mvi a,$10
$20eb 83         add e
$20ec 5f         mov e,a
$20ed fe f0      cpi $f0
$20ef da d4 20   jc $20d4
$20f2 c9         ret
$20f3 eb         xchg
$20f4 af         xra a
$20f5 be         cmp m
$20f6 c0         rnz
$20f7 eb         xchg
$20f8 19         dad d
$20f9 2d         dcr l
$20fa be         cmp m
$20fb c0         rnz
$20fc 44         mov b,h
$20fd 62         mov h,d
$20fe be         cmp m
$20ff c0         rnz
$2100 eb         xchg
$2101 60         mov h,b
$2102 be         cmp m
$2103 c0         rnz
$2104 c9         ret
$2105 7a         mov a,d
$2106 80         add b
$2107 e6 f0      ani $f0
$2109 0f         rrc
$210a 0f         rrc
$210b 0f         rrc
$210c c6 80      adi $80
$210e 67         mov h,a
$210f 7b         mov a,e
$2110 81         add c
$2111 6f         mov l,a
$2112 eb         xchg
$2113 3e f0      mvi a,$f0
$2115 a4         ana h
$2116 0f         rrc
$2117 0f         rrc
$2118 0f         rrc
$2119 c6 80      adi $80
$211b 67         mov h,a
$211c 7e         mov a,m
$211d 44         mov b,h
$211e 62         mov h,d
$211f b6         ora m
$2120 6b         mov l,e
$2121 b6         ora m
$2122 60         mov h,b
$2123 b6         ora m
$2124 e6 07      ani $07
$2126 c9         ret

$2127 00 00 00 00               ....

$212b 7a         mov a,d
$212c 80         add b
$212d e6 f0      ani $f0
$212f 0f         rrc
$2130 0f         rrc
$2131 0f         rrc
$2132 c6 80      adi $80
$2134 67         mov h,a
$2135 7b         mov a,e
$2136 81         add c
$2137 6f         mov l,a
$2138 eb         xchg
$2139 3e f0      mvi a,$f0
$213b a4         ana h
$213c 0f         rrc
$213d 0f         rrc
$213e 0f         rrc
$213f c6 80      adi $80
$2141 67         mov h,a
$2142 4e         mov c,m
$2143 44         mov b,h
$2144 62         mov h,d
$2145 56         mov d,m
$2146 6b         mov l,e
$2147 5e         mov e,m
$2148 60         mov h,b
$2149 66         mov h,m
$214a 69         mov l,c
$214b 22 27 21   shld $2127
$214e eb         xchg
$214f 22 29 21   shld $2129
$2152 7c         mov a,h
$2153 b5         ora l
$2154 b2         ora d
$2155 b3         ora e
$2156 e6 07      ani $07
$2158 c9         ret
$2159 7a         mov a,d
$215a 80         add b
$215b e6 f0      ani $f0
$215d 0f         rrc
$215e 0f         rrc
$215f 0f         rrc
$2160 c6 80      adi $80
$2162 67         mov h,a
$2163 7b         mov a,e
$2164 81         add c
$2165 6f         mov l,a
$2166 eb         xchg
$2167 3e f0      mvi a,$f0
$2169 a4         ana h
$216a 0f         rrc
$216b 0f         rrc
$216c 0f         rrc
$216d c6 80      adi $80
$216f 67         mov h,a
$2170 7e         mov a,m
$2171 c6 01      adi $01
$2173 3e 00      mvi a,$00
$2175 17         ral
$2176 4f         mov c,a
$2177 44         mov b,h
$2178 62         mov h,d
$2179 16 01      mvi d,$01
$217b 7e         mov a,m
$217c 82         add d
$217d 79         mov a,c
$217e 17         ral
$217f 4f         mov c,a
$2180 6b         mov l,e
$2181 7e         mov a,m
$2182 82         add d
$2183 79         mov a,c
$2184 17         ral
$2185 4f         mov c,a
$2186 60         mov h,b
$2187 7e         mov a,m
$2188 82         add d
$2189 79         mov a,c
$218a 17         ral
$218b 87         add a
$218c 4f         mov c,a
$218d c9         ret
$218e 5f         mov e,a
$218f 01 30 0f   lxi b,$0f30
$2192 a0         ana b
$2193 fe 0a      cpi $0a
$2195 da 9a 21   jc $219a
$2198 d6 39      sui $39
$219a 81         add c
$219b 23         inx h
$219c 77         mov m,a
$219d 2b         dcx h
$219e 7b         mov a,e
$219f 0f         rrc
$21a0 0f         rrc
$21a1 0f         rrc
$21a2 0f         rrc
$21a3 a0         ana b
$21a4 fe 0a      cpi $0a
$21a6 da ab 21   jc $21ab
$21a9 d6 39      sui $39
$21ab 81         add c
$21ac 77         mov m,a
$21ad c9         ret
$21ae 21 ba 21   lxi h,$21ba
$21b1 cd 8e 21   call $218e
$21b4 01 ff a0   lxi b,$a0ff
$21b7 c3 bd 21   jmp $21bd

$21ba 01 01 00                  ...

$21bd 5e         mov e,m
$21be af         xra a
$21bf bb         cmp e
$21c0 c8         rz
$21c1 23         inx h
$21c2 16 00      mvi d,$00
$21c4 e5         push h
$21c5 eb         xchg
$21c6 29         dad h
$21c7 29         dad h
$21c8 29         dad h
$21c9 11 fb 21   lxi d,$21fb
$21cc 19         dad d
$21cd eb         xchg
$21ce 21 00 00   lxi h,$0000
$21d1 39         dad sp
$21d2 22 ef 21   shld $21ef
$21d5 eb         xchg
$21d6 50         mov d,b
$21d7 59         mov e,c
$21d8 4e         mov c,m
$21d9 23         inx h
$21da 46         mov b,m
$21db 23         inx h
$21dc f9         sphl
$21dd eb         xchg
$21de 71         mov m,c
$21df 2d         dcr l
$21e0 70         mov m,b
$21e1 2d         dcr l
$21e2 c1         pop b
$21e3 71         mov m,c
$21e4 2d         dcr l
$21e5 70         mov m,b
$21e6 2d         dcr l
$21e7 c1         pop b
$21e8 71         mov m,c
$21e9 2d         dcr l
$21ea 70         mov m,b
$21eb 2d         dcr l
$21ec c1         pop b
$21ed 71         mov m,c
$21ee 31 00 00   lxi sp,$0000
$21f1 01 06 01   lxi b,$0106
$21f4 09         dad b
$21f5 44         mov b,h
$21f6 4d         mov c,l
$21f7 e1         pop h
$21f8 c3 bd 21   jmp $21bd

$21fb 00 00 00 00 00 00 00 00   ........
$2203 38 44 82 fe 82 82 82 00   8Dþ.
$220b fc 82 82 fe 82 82 fc 00   üþü.
$2213 3c 42 80 80 80 82 7c 00   <B|.
$221b fc 82 82 82 82 82 fc 00   üü.
$2223 fc 82 80 f8 80 82 fc 00   üøü.
$222b fc 82 80 f8 80 80 80 00   üø.
$2233 00 00 00 00 00 00 00 00   ........
$223b 00 00 00 00 00 00 00 00   ........
$2243 00 00 00 00 00 00 00 00   ........
$224b 00 00 00 00 00 00 00 00   ........
$2253 00 00 00 00 00 00 00 00   ........
$225b 00 00 00 00 00 00 00 00   ........
$2263 00 00 00 00 00 00 00 00   ........
$226b 00 00 00 00 00 00 00 00   ........
$2273 00 00 00 00 00 00 00 00   ........
$227b 00 00 00 00 00 00 00 00   ........
$2283 00 00 00 00 00 00 00 00   ........
$228b 00 00 00 00 00 00 00 00   ........
$2293 00 00 00 00 00 00 00 00   ........
$229b 00 00 00 00 00 00 00 00   ........
$22a3 00 00 00 00 00 00 00 00   ........
$22ab 00 00 00 00 00 00 00 00   ........
$22b3 00 00 00 00 00 00 00 00   ........
$22bb 00 00 00 00 00 00 00 00   ........
$22c3 00 00 00 00 00 00 00 00   ........
$22cb 00 00 00 00 00 00 00 00   ........
$22d3 00 00 00 00 00 00 00 00   ........
$22db 00 00 00 00 00 00 00 00   ........
$22e3 00 00 00 00 00 00 00 00   ........
$22eb 00 00 00 00 00 00 00 00   ........
$22f3 00 00 00 00 00 00 00 00   ........
$22fb 00 00 00 00 00 00 00 00   ........
$2303 00 00 00 00 00 00 00 00   ........
$230b 00 00 00 00 00 00 00 00   ........
$2313 00 00 00 00 00 00 00 00   ........
$231b 00 00 00 00 00 00 00 00   ........
$2323 00 00 00 00 00 00 00 00   ........
$232b 00 00 00 00 00 00 00 00   ........
$2333 00 00 00 00 00 00 00 00   ........
$233b 00 00 00 00 00 00 00 00   ........
$2343 00 00 00 00 00 00 00 00   ........
$234b 00 00 00 00 00 00 00 00   ........
$2353 00 00 00 00 00 00 00 00   ........
$235b 00 00 00 00 00 00 00 00   ........
$2363 00 00 00 00 00 00 00 00   ........
$236b 00 00 00 00 00 00 00 00   ........
$2373 00 00 00 00 00 00 00 00   ........
$237b 7c 86 8a 92 a2 c2 7c 00   |¢Â|.
$2383 18 28 48 08 08 08 1c 00   .(H.....
$238b 7c 82 0c 70 80 80 fe 00   |.pþ.
$2393 7c 82 02 0c 02 82 7c 00   |...|.
$239b 1c 24 44 84 fe 04 04 00   .$Dþ...
$23a3 fe 80 80 fc 02 82 7c 00   þü.|.
$23ab 7c 82 80 fc 82 82 7c 00   |ü|.
$23b3 7e 82 04 08 10 20 20 00   ~...  .
$23bb 7c 82 82 7c 82 82 7c 00   |||.
$23c3 7c 82 82 fe 04 08 70 00   |þ..p.
$23cb 6c fa fa fe 7c 38 10 00   lúúþ|8..

$23d3 cd da 23   call $23da
$23d6 cd e8 23   call $23e8
$23d9 c9         ret
$23da 21 e4 23   lxi h,$23e4
$23dd 01 ff a4   lxi b,$a4ff
$23e0 cd bd 21   call $21bd
$23e3 c9         ret

$23e4 3a 31 30 00               :10.

$23e8 21 e5 23   lxi h,$23e5
$23eb 3a d7 11   lda $11d7
$23ee cd 8e 21   call $218e
$23f1 21 e5 23   lxi h,$23e5
$23f4 01 ff a5   lxi b,$a5ff
$23f7 cd bd 21   call $21bd
$23fa c9         ret
$23fb cd 2f 1f   call $1f2f
$23fe cd 34 1f   call $1f34
$2401 cd 71 1f   call $1f71
$2404 cd 39 20   call $2039
$2407 cd d3 23   call $23d3
$240a af         xra a
$240b 32 2e 01   sta $012e
$240e 76         hlt
$240f 3e f5      mvi a,$f5
$2411 32 2f 01   sta $012f
$2414 d3 10      out $10
$2416 cd 05 b1   call $b105
$2419 af         xra a
$241a 32 2f 01   sta $012f
$241d d3 10      out $10
$241f cd 28 24   call $2428
$2422 cd 4b 24   call $244b
$2425 c3 0f 24   jmp $240f
$2428 21 32 01   lxi h,$0132
$242b 34         inr m
$242c 3a 2e 01   lda $012e
$242f b7         ora a
$2430 c8         rz
$2431 cd 41 12   call $1241
$2434 cd db 1a   call $1adb
$2437 cd 7a 1e   call $1e7a
$243a cd 54 1f   call $1f54
$243d 2a 28 01   lhld $0128
$2440 22 2a 01   shld $012a
$2443 21 2e 01   lxi h,$012e
$2446 35         dcr m
$2447 c2 31 24   jnz $2431
$244a c9         ret
$244b 21 31 01   lxi h,$0131
$244e 34         inr m
$244f cd e5 15   call $15e5
$2452 cd e1 1a   call $1ae1
$2455 cd 80 1e   call $1e80
$2458 cd 0c 16   call $160c
$245b cd e7 1a   call $1ae7
$245e cd 86 1e   call $1e86
$2461 cd 4a 16   call $164a
$2464 cd ed 1a   call $1aed
$2467 cd 8c 1e   call $1e8c
$246a c9         ret
$246b 3e e1      mvi a,$e1
$246d 32 2f 01   sta $012f
$2470 d3 10      out $10
$2472 cd fe b0   call $b0fe
$2475 af         xra a
$2476 32 2f 01   sta $012f
$2479 d3 10      out $10
$247b cd fb 23   call $23fb
$247e c3 7b 24   jmp $247b

$2481 04 90 24 b8 24 e0 24 08   .$¸$à$.
$2489 25 30 25 44 25 00 00 09   %0%D%...
$2491 00 02 00 bc 00 d0 01 e4   ...¼.Ð.ä
$2499 02 09 00 02 00 bc 00 d0   .....¼.Ð
$24a1 01 e4 02 09 00 02 00 bc   .ä.....¼
$24a9 00 d0 01 e4 02 e1 ff da   .Ð.ä.áÿÚ
$24b1 0f 94 10 a8 11 bc 12 09   ..¨.¼..
$24b9 00 f8 03 b2 04 c6 05 da   .ø.².Æ.Ú
$24c1 06 09 00 f8 03 b2 04 c6   ...ø.².Æ
$24c9 05 da 06 09 00 f8 03 b2   .Ú...ø.²
$24d1 04 c6 05 da 06 e1 ff b2   .Æ.Ú.áÿ²
$24d9 1f 6c 20 80 21 94 22 09   .l !".
$24e1 00 ee 07 a8 08 bc 09 d0   .î.¨.¼.Ð
$24e9 0a 09 00 e4 0b 9e 0c b2   ...ä..²
$24f1 0d c6 0e 09 00 da 0f 94   .Æ...Ú.
$24f9 10 a8 11 bc 12 e1 ff d0   .¨.¼.áÿÐ
$2501 13 8a 14 9e 15 b2 16 09   ...²..
$2509 00 c6 17 80 18 94 19 a8   .Æ...¨
$2511 1a 09 00 bc 1b 76 1c 8a   ...¼.v.
$2519 1d 9e 1e 09 00 b2 1f 6c   ....².l
$2521 20 80 21 94 22 e1 ff a8    !"áÿ¨
$2529 23 62 24 76 25 8a 26 09   #b$v%&.
$2531 00 9e 27 58 28 12 29 26   .'X(.)&
$2539 2a f5 ff 3a 2b f4 2b 08   *õÿ:+ô+.
$2541 2d 1c 2e 09 00 30 2f ea   -....0/ê
$2549 2f fe 30 12 32 f5 ff cc   /þ0.2õÿÌ
$2551 32 86 33 9a 34 ae 35 04   234®5.
$2559 63 25 6d 25 77 25 9f 25   c%m%w%%
$2561 00 00 ff ff c2 36 7c 37   ..ÿÿÂ6|7
$2569 90 38 a4 39 ff ff b8 3a   8¤9ÿÿ¸:
$2571 72 3b 86 3c 9a 3d 09 00   r;<=..
$2579 ae 3e 68 3f 7c 40 90 41   ®>h?|@A
$2581 09 00 a4 42 5e 43 72 44   ..¤B^CrD
$2589 86 45 09 00 9a 46 54 47   E..FTG
$2591 68 48 7c 49 e1 ff 90 4a   hH|IáÿJ
$2599 4a 4b 5e 4c 72 4d 09 00   JK^LrM..
$25a1 86 4e 40 4f 54 50 68 51   N@OTPhQ
$25a9 09 00 7c 52 36 53 4a 54   ..|R6SJT
$25b1 5e 55 09 00 72 56 2c 57   ^U..rV,W
$25b9 40 58 54 59 e1 ff 68 5a   @XTYáÿhZ
$25c1 22 5b 36 5c 4a 5d 04 de   "[6\J].Þ
$25c9 25 e8 25 f2 25 fc 25 06   %è%ò%ü%.
$25d1 26 10 26 1a 26 24 26 2e   &.&.&$&.
$25d9 26 38 26 00 00 ff ff 5e   &8&..ÿÿ^
$25e1 5e a0 5e e2 5e 24 5f ff   ^ ^â^$_ÿ
$25e9 ff 84 5f c6 5f 08 60 4a   ÿ_Æ_.`J
$25f1 60 ff ff f6 62 44 63 92   `ÿÿöbDc
$25f9 63 28 64 ff ff 1e 65 6c   c(dÿÿ.el
$2601 65 ba 65 50 66 ff ff f6   eºePfÿÿö
$2609 62 44 63 92 63 28 64 ff   bDcc(dÿ
$2611 ff be 64 0c 65 12 65 18   ÿ¾d.e.e.
$2619 65 ff ff d0 61 12 62 54   eÿÿÐa.bT
$2621 62 96 62 ff ff aa 60 ec   bbÿÿª`ì
$2629 60 2e 61 70 61 ff ff be   `.apaÿÿ¾
$2631 64 0c 65 12 65 18 65 ff   d.e.e.eÿ
$2639 ff e6 66 34 67 3a 67 40   ÿæf4g:g@
$2641 67 08 4b 26 5d 26 81 26   g.K&]&&
$2649 00 00 ff ff 46 67 6a 67   ..ÿÿFgjg
$2651 ac 67 ee 67 30 68 72 68   ¬gîg0hrh
$2659 b4 68 f6 68 11 00 38 69   ´höh..8i
$2661 e6 69 94 6a 42 6b f0 6b   æijBkðk
$2669 9e 6c 4c 6d a6 6d ed ff   lLm¦míÿ
$2671 00 6e a2 6e 44 6f e6 6f   .n¢nDoæo
$2679 88 70 2a 71 cc 71 20 72   p*qÌq r
$2681 11 00 c2 72 70 73 1e 74   ..Ârps.t
$2689 cc 74 26 75 80 75 2e 76   Ìt&uu.v
$2691 dc 76 ed ff 8a 77 2c 78   Üvíÿw,x
$2699 ce 78 70 79 12 7a 66 7a   Îxpy.zfz
$26a1 08 7b aa 7b 04 b0 26 ba   .{ª{.°&º
$26a9 26 c4 26 ec 26 00 00 ff   &Ä&ì&..ÿ
$26b1 ff 02 00 bc 00 76 01 8a   ÿ..¼.v.
$26b9 02 ff ff 9e 03 58 04 12   .ÿÿ.X..
$26c1 05 26 06 09 00 3a 07 f4   .&...:.ô
$26c9 07 ae 08 c2 09 09 00 d6   .®.Â...Ö
$26d1 0a 90 0b 4a 0c 5e 0d 09   ..J.^..
$26d9 00 72 0e 2c 0f e6 0f fa   .r.,.æ.ú
$26e1 10 e1 ff 0e 12 c8 12 82   .áÿ..È.
$26e9 13 96 14 09 00 aa 15 64   ....ª.d
$26f1 16 1e 17 32 18 09 00 46   ...2...F
$26f9 19 00 1a ba 1a ce 1b 09   ...º.Î..
$2701 00 e2 1c 9c 1d 56 1e 6a   .â..V.j
$2709 1f e1 ff 7e 20 38 21 f2   .áÿ~ 8!ò
$2711 21 06 23 04 1f 27 29 27   !.#..')'
$2719 33 27 5b 27 00 00 ff ff   3'['..ÿÿ
$2721 1a 24 bc 24 5e 25 4e 26   .$¼$^%N&
$2729 ff ff f0 26 92 27 34 28   ÿÿð&'4(
$2731 24 29 09 00 c6 29 68 2a   $)..Æ)h*
$2739 0a 2b fa 2b 09 00 9c 2c   .+ú+..,
$2741 3e 2d e0 2d d0 2e 09 00   >-à-Ð...
$2749 72 2f 14 30 b6 30 a6 31   r/.0¶0¦1
$2751 e1 ff 48 32 ea 32 8c 33   áÿH2ê23
$2759 7c 34 09 00 1e 35 c0 35   |4...5À5
$2761 62 36 52 37 09 00 f4 37   b6R7..ô7
$2769 96 38 38 39 28 3a 09 00   889(:..
$2771 ca 3a 6c 3b 0e 3c fe 3c   Ê:l;.<þ<
$2779 e1 ff a0 3d 42 3e e4 3e   áÿ =B>ä>
$2781 d4 3f 04 8e 27 98 27 a2   Ô?.''¢
$2789 27 ca 27 00 00 ff ff 76   'Ê'..ÿÿv
$2791 40 30 41 ea 41 fe 42 ff   @0AêAþBÿ
$2799 ff b8 43 72 44 2c 45 40   ÿ¸CrD,E@
$27a1 46 09 00 fa 46 b4 47 6e   F..úF´Gn
$27a9 48 82 49 09 00 3c 4a f6   HI..<Jö
$27b1 4a b0 4b c4 4c 09 00 7e   J°KÄL..~
$27b9 4d 38 4e f2 4e 06 50 e1   M8NòN.Pá
$27c1 ff c0 50 7a 51 34 52 48   ÿÀPzQ4RH
$27c9 53 09 00 02 54 bc 54 76   S...T¼Tv
$27d1 55 8a 56 09 00 44 57 fe   UV..DWþ
$27d9 57 b8 58 cc 59 09 00 86   W¸XÌY..
$27e1 5a 40 5b fa 5b 0e 5d e1   Z@[ú[.]á
$27e9 ff c8 5d 82 5e 3c 5f 50   ÿÈ]^<_P
$27f1 60                        `